Archive member included to satisfy reference by file (symbol)

/home/nico/Downloads/Real-Time-Systems/Ada_Drivers_Library/boards/MicroBit/obj/zfp_lib_Debug/libada_drivers_library.a(cortex_m-nvic.o)
                              b__main.o (cortex_m__nvic_E)
/home/nico/Downloads/Real-Time-Systems/Ada_Drivers_Library/boards/MicroBit/obj/zfp_lib_Debug/libada_drivers_library.a(crt0.o)
                              (_start)
/home/nico/Downloads/Real-Time-Systems/Ada_Drivers_Library/boards/MicroBit/obj/zfp_lib_Debug/libada_drivers_library.a(microbit-accelerometer.o)
                              /home/nico/Downloads/Real-Time-Systems/driving/obj/accelerometer.o (microbit__accelerometer__initialized)
/home/nico/Downloads/Real-Time-Systems/Ada_Drivers_Library/boards/MicroBit/obj/zfp_lib_Debug/libada_drivers_library.a(microbit-console.o)
                              /home/nico/Downloads/Real-Time-Systems/driving/obj/qjs.o (microbit__console__put_line)
/home/nico/Downloads/Real-Time-Systems/Ada_Drivers_Library/boards/MicroBit/obj/zfp_lib_Debug/libada_drivers_library.a(microbit-display.o)
                              /home/nico/Downloads/Real-Time-Systems/driving/obj/accelerometer.o (microbit__display__set)
/home/nico/Downloads/Real-Time-Systems/Ada_Drivers_Library/boards/MicroBit/obj/zfp_lib_Debug/libada_drivers_library.a(microbit-i2c.o)
                              /home/nico/Downloads/Real-Time-Systems/Ada_Drivers_Library/boards/MicroBit/obj/zfp_lib_Debug/libada_drivers_library.a(microbit-accelerometer.o) (microbit__i2c__initialized)
/home/nico/Downloads/Real-Time-Systems/Ada_Drivers_Library/boards/MicroBit/obj/zfp_lib_Debug/libada_drivers_library.a(microbit-ios.o)
                              /home/nico/Downloads/Real-Time-Systems/driving/obj/nav.o (microbit__ios__set)
/home/nico/Downloads/Real-Time-Systems/Ada_Drivers_Library/boards/MicroBit/obj/zfp_lib_Debug/libada_drivers_library.a(microbit-servos.o)
                              /home/nico/Downloads/Real-Time-Systems/driving/obj/sensor.o (microbit__servos__servo_pin_idPredicate)
/home/nico/Downloads/Real-Time-Systems/Ada_Drivers_Library/boards/MicroBit/obj/zfp_lib_Debug/libada_drivers_library.a(microbit-time.o)
                              /home/nico/Downloads/Real-Time-Systems/driving/obj/accelerometer.o (microbit__time__clock)
/home/nico/Downloads/Real-Time-Systems/Ada_Drivers_Library/boards/MicroBit/obj/zfp_lib_Debug/libada_drivers_library.a(mma8653.o)
                              /home/nico/Downloads/Real-Time-Systems/Ada_Drivers_Library/boards/MicroBit/obj/zfp_lib_Debug/libada_drivers_library.a(microbit-accelerometer.o) (mma8653__mma8653_accelerometerIP)
/home/nico/Downloads/Real-Time-Systems/Ada_Drivers_Library/boards/MicroBit/obj/zfp_lib_Debug/libada_drivers_library.a(nrf51-adc.o)
                              /home/nico/Downloads/Real-Time-Systems/Ada_Drivers_Library/boards/MicroBit/obj/zfp_lib_Debug/libada_drivers_library.a(microbit-ios.o) (nrf51__adc__start_pin_conversion)
/home/nico/Downloads/Real-Time-Systems/Ada_Drivers_Library/boards/MicroBit/obj/zfp_lib_Debug/libada_drivers_library.a(nrf51-clock.o)
                              /home/nico/Downloads/Real-Time-Systems/Ada_Drivers_Library/boards/MicroBit/obj/zfp_lib_Debug/libada_drivers_library.a(microbit-time.o) (nrf51__clock__set_low_freq_source)
/home/nico/Downloads/Real-Time-Systems/Ada_Drivers_Library/boards/MicroBit/obj/zfp_lib_Debug/libada_drivers_library.a(nrf51-device.o)
                              b__main.o (nrf51__device___elabs)
/home/nico/Downloads/Real-Time-Systems/Ada_Drivers_Library/boards/MicroBit/obj/zfp_lib_Debug/libada_drivers_library.a(nrf51-events.o)
                              /home/nico/Downloads/Real-Time-Systems/Ada_Drivers_Library/boards/MicroBit/obj/zfp_lib_Debug/libada_drivers_library.a(microbit-ios.o) (nrf51__events__enable_interrupt)
/home/nico/Downloads/Real-Time-Systems/Ada_Drivers_Library/boards/MicroBit/obj/zfp_lib_Debug/libada_drivers_library.a(nrf51-gpio-tasks_and_events.o)
                              /home/nico/Downloads/Real-Time-Systems/Ada_Drivers_Library/boards/MicroBit/obj/zfp_lib_Debug/libada_drivers_library.a(microbit-ios.o) (nrf51__gpio__tasks_and_events__disable)
/home/nico/Downloads/Real-Time-Systems/Ada_Drivers_Library/boards/MicroBit/obj/zfp_lib_Debug/libada_drivers_library.a(nrf51-gpio.o)
                              /home/nico/Downloads/Real-Time-Systems/Ada_Drivers_Library/boards/MicroBit/obj/zfp_lib_Debug/libada_drivers_library.a(microbit-display.o) (nrf51__gpio__gpio_configurationIP)
/home/nico/Downloads/Real-Time-Systems/Ada_Drivers_Library/boards/MicroBit/obj/zfp_lib_Debug/libada_drivers_library.a(nrf51-interrupts.o)
                              /home/nico/Downloads/Real-Time-Systems/Ada_Drivers_Library/boards/MicroBit/obj/zfp_lib_Debug/libada_drivers_library.a(microbit-ios.o) (nrf51__interrupts__enable)
/home/nico/Downloads/Real-Time-Systems/Ada_Drivers_Library/boards/MicroBit/obj/zfp_lib_Debug/libada_drivers_library.a(nrf51-ppi.o)
                              /home/nico/Downloads/Real-Time-Systems/Ada_Drivers_Library/boards/MicroBit/obj/zfp_lib_Debug/libada_drivers_library.a(microbit-ios.o) (nrf51__ppi__configure)
/home/nico/Downloads/Real-Time-Systems/Ada_Drivers_Library/boards/MicroBit/obj/zfp_lib_Debug/libada_drivers_library.a(nrf51-rtc.o)
                              /home/nico/Downloads/Real-Time-Systems/Ada_Drivers_Library/boards/MicroBit/obj/zfp_lib_Debug/libada_drivers_library.a(nrf51-device.o) (nrf51__rtc__real_time_counterIP)
/home/nico/Downloads/Real-Time-Systems/Ada_Drivers_Library/boards/MicroBit/obj/zfp_lib_Debug/libada_drivers_library.a(nrf51-spi_master.o)
                              /home/nico/Downloads/Real-Time-Systems/Ada_Drivers_Library/boards/MicroBit/obj/zfp_lib_Debug/libada_drivers_library.a(nrf51-device.o) (nrf51__spi_master__spi_masterIP)
/home/nico/Downloads/Real-Time-Systems/Ada_Drivers_Library/boards/MicroBit/obj/zfp_lib_Debug/libada_drivers_library.a(nrf51-tasks.o)
                              /home/nico/Downloads/Real-Time-Systems/Ada_Drivers_Library/boards/MicroBit/obj/zfp_lib_Debug/libada_drivers_library.a(nrf51-adc.o) (nrf51__tasks__trigger)
/home/nico/Downloads/Real-Time-Systems/Ada_Drivers_Library/boards/MicroBit/obj/zfp_lib_Debug/libada_drivers_library.a(nrf51-timers.o)
                              /home/nico/Downloads/Real-Time-Systems/Ada_Drivers_Library/boards/MicroBit/obj/zfp_lib_Debug/libada_drivers_library.a(nrf51-device.o) (nrf51__timers__timerIP)
/home/nico/Downloads/Real-Time-Systems/Ada_Drivers_Library/boards/MicroBit/obj/zfp_lib_Debug/libada_drivers_library.a(nrf51-twi.o)
                              /home/nico/Downloads/Real-Time-Systems/Ada_Drivers_Library/boards/MicroBit/obj/zfp_lib_Debug/libada_drivers_library.a(nrf51-device.o) (nrf51__twi__twi_masterIP)
/home/nico/Downloads/Real-Time-Systems/Ada_Drivers_Library/boards/MicroBit/obj/zfp_lib_Debug/libada_drivers_library.a(nrf51-uart.o)
                              /home/nico/Downloads/Real-Time-Systems/Ada_Drivers_Library/boards/MicroBit/obj/zfp_lib_Debug/libada_drivers_library.a(nrf51-device.o) (nrf51__uart__uart_deviceIP)
/home/nico/Downloads/Real-Time-Systems/Ada_Drivers_Library/boards/MicroBit/obj/zfp_lib_Debug/libada_drivers_library.a(nrf51_svd-gpio.o)
                              /home/nico/Downloads/Real-Time-Systems/Ada_Drivers_Library/boards/MicroBit/obj/zfp_lib_Debug/libada_drivers_library.a(nrf51-gpio.o) (nrf51_svd__gpio__pin_cnf_pull_fieldRP)
/home/nico/Downloads/Real-Time-Systems/Ada_Drivers_Library/boards/MicroBit/obj/zfp_lib_Debug/libada_drivers_library.a(nrf51_svd-twi.o)
                              /home/nico/Downloads/Real-Time-Systems/Ada_Drivers_Library/boards/MicroBit/obj/zfp_lib_Debug/libada_drivers_library.a(nrf51-twi.o) (nrf51_svd__twi__errorsrc_registerIP)
/home/nico/Downloads/Real-Time-Systems/Ada_Drivers_Library/boards/MicroBit/obj/zfp_lib_Debug/libada_drivers_library.a(hal-gpio.o)
                              /home/nico/Downloads/Real-Time-Systems/Ada_Drivers_Library/boards/MicroBit/obj/zfp_lib_Debug/libada_drivers_library.a(nrf51-gpio.o) (hal__gpio__gpio_pointT)
/home/nico/Downloads/Real-Time-Systems/Ada_Drivers_Library/boards/MicroBit/obj/zfp_lib_Debug/libada_drivers_library.a(hal-i2c.o)
                              /home/nico/Downloads/Real-Time-Systems/Ada_Drivers_Library/boards/MicroBit/obj/zfp_lib_Debug/libada_drivers_library.a(nrf51-twi.o) (hal__i2c__i2c_portT)
/home/nico/Downloads/Real-Time-Systems/Ada_Drivers_Library/boards/MicroBit/obj/zfp_lib_Debug/libada_drivers_library.a(hal-spi.o)
                              /home/nico/Downloads/Real-Time-Systems/Ada_Drivers_Library/boards/MicroBit/obj/zfp_lib_Debug/libada_drivers_library.a(nrf51-spi_master.o) (hal__spi__spi_portT)
/home/nico/Downloads/Real-Time-Systems/Ada_Drivers_Library/boards/MicroBit/obj/zfp_lib_Debug/libada_drivers_library.a(hal-time.o)
                              /home/nico/Downloads/Real-Time-Systems/Ada_Drivers_Library/boards/MicroBit/obj/zfp_lib_Debug/libada_drivers_library.a(microbit-time.o) (hal__time__delaysT)
/home/nico/Downloads/Real-Time-Systems/Ada_Drivers_Library/boards/MicroBit/obj/zfp_lib_Debug/libada_drivers_library.a(hal-uart.o)
                              /home/nico/Downloads/Real-Time-Systems/Ada_Drivers_Library/boards/MicroBit/obj/zfp_lib_Debug/libada_drivers_library.a(nrf51-uart.o) (hal__uart__uart_portT)
/home/nico/opt/GNAT/2019-arm-elf/arm-eabi/lib/gnat/zfp-cortex-m0/adalib/libgnat.a(a-elchha.o)
                              /home/nico/Downloads/Real-Time-Systems/driving/obj/chore.o (__gnat_last_chance_handler)
/home/nico/opt/GNAT/2019-arm-elf/arm-eabi/lib/gnat/zfp-cortex-m0/adalib/libgnat.a(a-except.o)
                              /home/nico/Downloads/Real-Time-Systems/Ada_Drivers_Library/boards/MicroBit/obj/zfp_lib_Debug/libada_drivers_library.a(microbit-ios.o) (ada__exceptions__empty_c_string___UNC)
/home/nico/opt/GNAT/2019-arm-elf/arm-eabi/lib/gnat/zfp-cortex-m0/adalib/libgnat.a(breakpoint_handler-cortexm.o)
                              /home/nico/Downloads/Real-Time-Systems/Ada_Drivers_Library/boards/MicroBit/obj/zfp_lib_Debug/libada_drivers_library.a(crt0.o) (__gnat_bkpt_trap)
/home/nico/opt/GNAT/2019-arm-elf/arm-eabi/lib/gnat/zfp-cortex-m0/adalib/libgnat.a(g-io.o)
                              /home/nico/opt/GNAT/2019-arm-elf/arm-eabi/lib/gnat/zfp-cortex-m0/adalib/libgnat.a(a-elchha.o) (gnat__io__put__2)
/home/nico/opt/GNAT/2019-arm-elf/arm-eabi/lib/gnat/zfp-cortex-m0/adalib/libgnat.a(s-assert.o)
                              /home/nico/Downloads/Real-Time-Systems/driving/obj/sensor.o (system__assertions__raise_assert_failure)
/home/nico/opt/GNAT/2019-arm-elf/arm-eabi/lib/gnat/zfp-cortex-m0/adalib/libgnat.a(s-imgint.o)
                              /home/nico/Downloads/Real-Time-Systems/driving/obj/qjs.o (system__img_int__image_integer)
/home/nico/opt/GNAT/2019-arm-elf/arm-eabi/lib/gnat/zfp-cortex-m0/adalib/libgnat.a(s-macres.o)
                              /home/nico/Downloads/Real-Time-Systems/Ada_Drivers_Library/boards/MicroBit/obj/zfp_lib_Debug/libada_drivers_library.a(crt0.o) (_exit)
/home/nico/opt/GNAT/2019-arm-elf/arm-eabi/lib/gnat/zfp-cortex-m0/adalib/libgnat.a(s-memcom.o)
                              /home/nico/Downloads/Real-Time-Systems/driving/obj/chore.o (memcmp)
/home/nico/opt/GNAT/2019-arm-elf/arm-eabi/lib/gnat/zfp-cortex-m0/adalib/libgnat.a(s-memcop.o)
                              main.o (memcpy)
/home/nico/opt/GNAT/2019-arm-elf/arm-eabi/lib/gnat/zfp-cortex-m0/adalib/libgnat.a(s-memmov.o)
                              /home/nico/Downloads/Real-Time-Systems/Ada_Drivers_Library/boards/MicroBit/obj/zfp_lib_Debug/libada_drivers_library.a(microbit-display.o) (memmove)
/home/nico/opt/GNAT/2019-arm-elf/arm-eabi/lib/gnat/zfp-cortex-m0/adalib/libgnat.a(s-memset.o)
                              /home/nico/Downloads/Real-Time-Systems/Ada_Drivers_Library/boards/MicroBit/obj/zfp_lib_Debug/libada_drivers_library.a(microbit-display.o) (memset)
/home/nico/opt/GNAT/2019-arm-elf/arm-eabi/lib/gnat/zfp-cortex-m0/adalib/libgnat.a(s-secsta.o)
                              b__main.o (system__secondary_stack__ss_stackIP)
/home/nico/opt/GNAT/2019-arm-elf/arm-eabi/lib/gnat/zfp-cortex-m0/adalib/libgnat.a(s-sssita.o)
                              /home/nico/opt/GNAT/2019-arm-elf/arm-eabi/lib/gnat/zfp-cortex-m0/adalib/libgnat.a(s-secsta.o) (__gnat_get_secondary_stack)
/home/nico/opt/GNAT/2019-arm-elf/arm-eabi/lib/gnat/zfp-cortex-m0/adalib/libgnat.a(s-textio.o)
                              /home/nico/opt/GNAT/2019-arm-elf/arm-eabi/lib/gnat/zfp-cortex-m0/adalib/libgnat.a(g-io.o) (system__text_io__initialize)
/home/nico/opt/GNAT/2019-arm-elf/arm-eabi/lib/gnat/zfp-cortex-m0/adalib/libgnat.a(s-semiho.o)
                              /home/nico/opt/GNAT/2019-arm-elf/arm-eabi/lib/gnat/zfp-cortex-m0/adalib/libgnat.a(s-textio.o) (system__semihosting__put)
/home/nico/opt/GNAT/2019-arm-elf/bin/../lib/gcc/arm-eabi/7.4.1/thumb/v6-m/libgcc.a(_divsi3.o)
                              /home/nico/Downloads/Real-Time-Systems/Ada_Drivers_Library/boards/MicroBit/obj/zfp_lib_Debug/libada_drivers_library.a(microbit-servos.o) (__aeabi_idiv)
/home/nico/opt/GNAT/2019-arm-elf/bin/../lib/gcc/arm-eabi/7.4.1/thumb/v6-m/libgcc.a(_dvmd_tls.o)
                              /home/nico/opt/GNAT/2019-arm-elf/bin/../lib/gcc/arm-eabi/7.4.1/thumb/v6-m/libgcc.a(_divsi3.o) (__aeabi_idiv0)
/home/nico/opt/GNAT/2019-arm-elf/bin/../lib/gcc/arm-eabi/7.4.1/thumb/v6-m/libgcc.a(_arm_cmpsf2.o)
                              /home/nico/Downloads/Real-Time-Systems/Ada_Drivers_Library/boards/MicroBit/obj/zfp_lib_Debug/libada_drivers_library.a(microbit-ios.o) (__aeabi_fcmple)
/home/nico/opt/GNAT/2019-arm-elf/bin/../lib/gcc/arm-eabi/7.4.1/thumb/v6-m/libgcc.a(_fixunssfsi.o)
                              /home/nico/Downloads/Real-Time-Systems/Ada_Drivers_Library/boards/MicroBit/obj/zfp_lib_Debug/libada_drivers_library.a(microbit-ios.o) (__aeabi_f2uiz)
/home/nico/opt/GNAT/2019-arm-elf/bin/../lib/gcc/arm-eabi/7.4.1/thumb/v6-m/libgcc.a(addsf3.o)
                              /home/nico/Downloads/Real-Time-Systems/Ada_Drivers_Library/boards/MicroBit/obj/zfp_lib_Debug/libada_drivers_library.a(microbit-ios.o) (__aeabi_fadd)
/home/nico/opt/GNAT/2019-arm-elf/bin/../lib/gcc/arm-eabi/7.4.1/thumb/v6-m/libgcc.a(divsf3.o)
                              /home/nico/Downloads/Real-Time-Systems/Ada_Drivers_Library/boards/MicroBit/obj/zfp_lib_Debug/libada_drivers_library.a(microbit-ios.o) (__aeabi_fdiv)
/home/nico/opt/GNAT/2019-arm-elf/bin/../lib/gcc/arm-eabi/7.4.1/thumb/v6-m/libgcc.a(eqsf2.o)
                              /home/nico/opt/GNAT/2019-arm-elf/bin/../lib/gcc/arm-eabi/7.4.1/thumb/v6-m/libgcc.a(_arm_cmpsf2.o) (__eqsf2)
/home/nico/opt/GNAT/2019-arm-elf/bin/../lib/gcc/arm-eabi/7.4.1/thumb/v6-m/libgcc.a(gesf2.o)
                              /home/nico/opt/GNAT/2019-arm-elf/bin/../lib/gcc/arm-eabi/7.4.1/thumb/v6-m/libgcc.a(_arm_cmpsf2.o) (__gesf2)
/home/nico/opt/GNAT/2019-arm-elf/bin/../lib/gcc/arm-eabi/7.4.1/thumb/v6-m/libgcc.a(lesf2.o)
                              /home/nico/opt/GNAT/2019-arm-elf/bin/../lib/gcc/arm-eabi/7.4.1/thumb/v6-m/libgcc.a(_arm_cmpsf2.o) (__lesf2)
/home/nico/opt/GNAT/2019-arm-elf/bin/../lib/gcc/arm-eabi/7.4.1/thumb/v6-m/libgcc.a(mulsf3.o)
                              /home/nico/Downloads/Real-Time-Systems/Ada_Drivers_Library/boards/MicroBit/obj/zfp_lib_Debug/libada_drivers_library.a(microbit-ios.o) (__aeabi_fmul)
/home/nico/opt/GNAT/2019-arm-elf/bin/../lib/gcc/arm-eabi/7.4.1/thumb/v6-m/libgcc.a(subsf3.o)
                              /home/nico/Downloads/Real-Time-Systems/Ada_Drivers_Library/boards/MicroBit/obj/zfp_lib_Debug/libada_drivers_library.a(microbit-ios.o) (__aeabi_fsub)
/home/nico/opt/GNAT/2019-arm-elf/bin/../lib/gcc/arm-eabi/7.4.1/thumb/v6-m/libgcc.a(unordsf2.o)
                              /home/nico/Downloads/Real-Time-Systems/Ada_Drivers_Library/boards/MicroBit/obj/zfp_lib_Debug/libada_drivers_library.a(microbit-ios.o) (__aeabi_fcmpun)
/home/nico/opt/GNAT/2019-arm-elf/bin/../lib/gcc/arm-eabi/7.4.1/thumb/v6-m/libgcc.a(fixsfsi.o)
                              /home/nico/opt/GNAT/2019-arm-elf/bin/../lib/gcc/arm-eabi/7.4.1/thumb/v6-m/libgcc.a(_fixunssfsi.o) (__aeabi_f2iz)
/home/nico/opt/GNAT/2019-arm-elf/bin/../lib/gcc/arm-eabi/7.4.1/thumb/v6-m/libgcc.a(floatsisf.o)
                              /home/nico/Downloads/Real-Time-Systems/Ada_Drivers_Library/boards/MicroBit/obj/zfp_lib_Debug/libada_drivers_library.a(microbit-ios.o) (__aeabi_i2f)
/home/nico/opt/GNAT/2019-arm-elf/bin/../lib/gcc/arm-eabi/7.4.1/thumb/v6-m/libgcc.a(floatunsisf.o)
                              /home/nico/Downloads/Real-Time-Systems/Ada_Drivers_Library/boards/MicroBit/obj/zfp_lib_Debug/libada_drivers_library.a(microbit-ios.o) (__aeabi_ui2f)
/home/nico/opt/GNAT/2019-arm-elf/bin/../lib/gcc/arm-eabi/7.4.1/thumb/v6-m/libgcc.a(_clzsi2.o)
                              /home/nico/opt/GNAT/2019-arm-elf/bin/../lib/gcc/arm-eabi/7.4.1/thumb/v6-m/libgcc.a(addsf3.o) (__clzsi2)

Discarded input sections

 .text          0x0000000000000000        0x0 main.o
 .data          0x0000000000000000        0x0 main.o
 .bss           0x0000000000000000        0x0 main.o
 .rodata.ta.4294
                0x0000000000000000       0x20 main.o
 .text          0x0000000000000000        0x0 b__main.o
 .data          0x0000000000000000        0x0 b__main.o
 .bss           0x0000000000000000        0x0 b__main.o
 .data.ada_main_E
                0x0000000000000000        0x2 b__main.o
 .rodata.__gnat_version
                0x0000000000000000       0x2b b__main.o
 .text          0x0000000000000000        0x0 /home/nico/Downloads/Real-Time-Systems/driving/obj/chore.o
 .data          0x0000000000000000        0x0 /home/nico/Downloads/Real-Time-Systems/driving/obj/chore.o
 .bss           0x0000000000000000        0x0 /home/nico/Downloads/Real-Time-Systems/driving/obj/chore.o
 .text.chore__choreIP
                0x0000000000000000       0x4c /home/nico/Downloads/Real-Time-Systems/driving/obj/chore.o
 .rodata.chore__choreP
                0x0000000000000000        0x4 /home/nico/Downloads/Real-Time-Systems/driving/obj/chore.o
 .rodata.chore__choreY
                0x0000000000000000        0x4 /home/nico/Downloads/Real-Time-Systems/driving/obj/chore.o
 .rodata.chore__choreR16s
                0x0000000000000000        0x4 /home/nico/Downloads/Real-Time-Systems/driving/obj/chore.o
 .text          0x0000000000000000        0x0 /home/nico/Downloads/Real-Time-Systems/driving/obj/accelerometer.o
 .data          0x0000000000000000        0x0 /home/nico/Downloads/Real-Time-Systems/driving/obj/accelerometer.o
 .bss           0x0000000000000000        0x0 /home/nico/Downloads/Real-Time-Systems/driving/obj/accelerometer.o
 .text.accelerometer__initialized
                0x0000000000000000       0x14 /home/nico/Downloads/Real-Time-Systems/driving/obj/accelerometer.o
 .rodata        0x0000000000000000       0x12 /home/nico/Downloads/Real-Time-Systems/driving/obj/accelerometer.o
 .text.accelerometer__show_on_display
                0x0000000000000000      0x294 /home/nico/Downloads/Real-Time-Systems/driving/obj/accelerometer.o
 .text.accelerometer__get_x
                0x0000000000000000       0x20 /home/nico/Downloads/Real-Time-Systems/driving/obj/accelerometer.o
 .text.accelerometer__get_z
                0x0000000000000000       0x20 /home/nico/Downloads/Real-Time-Systems/driving/obj/accelerometer.o
 .rodata.accelerometer__tilt_max_y
                0x0000000000000000        0x2 /home/nico/Downloads/Real-Time-Systems/driving/obj/accelerometer.o
 .rodata.accelerometer__tilt_min_y
                0x0000000000000000        0x2 /home/nico/Downloads/Real-Time-Systems/driving/obj/accelerometer.o
 .data.accelerometer__dx
                0x0000000000000000        0x4 /home/nico/Downloads/Real-Time-Systems/driving/obj/accelerometer.o
 .data.accelerometer__dy
                0x0000000000000000        0x4 /home/nico/Downloads/Real-Time-Systems/driving/obj/accelerometer.o
 .text          0x0000000000000000        0x0 /home/nico/Downloads/Real-Time-Systems/driving/obj/nav.o
 .data          0x0000000000000000        0x0 /home/nico/Downloads/Real-Time-Systems/driving/obj/nav.o
 .bss           0x0000000000000000        0x0 /home/nico/Downloads/Real-Time-Systems/driving/obj/nav.o
 .text.nav__write_to_m1__2
                0x0000000000000000       0x30 /home/nico/Downloads/Real-Time-Systems/driving/obj/nav.o
 .text.nav__write_to_m2__2
                0x0000000000000000       0x30 /home/nico/Downloads/Real-Time-Systems/driving/obj/nav.o
 .text.nav__drive_forward
                0x0000000000000000       0x20 /home/nico/Downloads/Real-Time-Systems/driving/obj/nav.o
 .text.nav__drive_backward
                0x0000000000000000       0x68 /home/nico/Downloads/Real-Time-Systems/driving/obj/nav.o
 .rodata.nav__m1anal_pin
                0x0000000000000000        0x1 /home/nico/Downloads/Real-Time-Systems/driving/obj/nav.o
 .rodata.nav__m1in1_pin
                0x0000000000000000        0x1 /home/nico/Downloads/Real-Time-Systems/driving/obj/nav.o
 .rodata.nav__m1in2_pin
                0x0000000000000000        0x1 /home/nico/Downloads/Real-Time-Systems/driving/obj/nav.o
 .rodata.nav__m2anal_pin
                0x0000000000000000        0x1 /home/nico/Downloads/Real-Time-Systems/driving/obj/nav.o
 .rodata.nav__m2in1_pin
                0x0000000000000000        0x1 /home/nico/Downloads/Real-Time-Systems/driving/obj/nav.o
 .rodata.nav__m2in2_pin
                0x0000000000000000        0x1 /home/nico/Downloads/Real-Time-Systems/driving/obj/nav.o
 .rodata.nav__zero
                0x0000000000000000        0x2 /home/nico/Downloads/Real-Time-Systems/driving/obj/nav.o
 .rodata.nav__low
                0x0000000000000000        0x2 /home/nico/Downloads/Real-Time-Systems/driving/obj/nav.o
 .rodata.nav__med
                0x0000000000000000        0x2 /home/nico/Downloads/Real-Time-Systems/driving/obj/nav.o
 .rodata.nav__high
                0x0000000000000000        0x2 /home/nico/Downloads/Real-Time-Systems/driving/obj/nav.o
 .text          0x0000000000000000        0x0 /home/nico/Downloads/Real-Time-Systems/driving/obj/qjs.o
 .data          0x0000000000000000        0x0 /home/nico/Downloads/Real-Time-Systems/driving/obj/qjs.o
 .bss           0x0000000000000000        0x0 /home/nico/Downloads/Real-Time-Systems/driving/obj/qjs.o
 .text.qjs__Tchore_queueBIP
                0x0000000000000000       0x3c /home/nico/Downloads/Real-Time-Systems/driving/obj/qjs.o
 .text.qjs__scheduleIP
                0x0000000000000000       0x3c /home/nico/Downloads/Real-Time-Systems/driving/obj/qjs.o
 .rodata.qjs__scheduleP
                0x0000000000000000        0x4 /home/nico/Downloads/Real-Time-Systems/driving/obj/qjs.o
 .rodata.qjs__scheduleY
                0x0000000000000000        0x4 /home/nico/Downloads/Real-Time-Systems/driving/obj/qjs.o
 .rodata.qjs__scheduleR24s
                0x0000000000000000        0x4 /home/nico/Downloads/Real-Time-Systems/driving/obj/qjs.o
 .text          0x0000000000000000        0x0 /home/nico/Downloads/Real-Time-Systems/driving/obj/sensor.o
 .data          0x0000000000000000        0x0 /home/nico/Downloads/Real-Time-Systems/driving/obj/sensor.o
 .bss           0x0000000000000000        0x0 /home/nico/Downloads/Real-Time-Systems/driving/obj/sensor.o
 .text.sensor__read
                0x0000000000000000       0x94 /home/nico/Downloads/Real-Time-Systems/driving/obj/sensor.o
 .data.sensor__travel_time_stop
                0x0000000000000000        0x4 /home/nico/Downloads/Real-Time-Systems/driving/obj/sensor.o
 .rodata.sensor__sensor_trig_pin
                0x0000000000000000        0x1 /home/nico/Downloads/Real-Time-Systems/driving/obj/sensor.o
 .rodata.sensor__sensor_echo_pin
                0x0000000000000000        0x1 /home/nico/Downloads/Real-Time-Systems/driving/obj/sensor.o
 .text          0x0000000000000000        0x0 /home/nico/Downloads/Real-Time-Systems/Ada_Drivers_Library/boards/MicroBit/obj/zfp_lib_Debug/libada_drivers_library.a(cortex_m-nvic.o)
 .data          0x0000000000000000        0x0 /home/nico/Downloads/Real-Time-Systems/Ada_Drivers_Library/boards/MicroBit/obj/zfp_lib_Debug/libada_drivers_library.a(cortex_m-nvic.o)
 .bss           0x0000000000000000        0x0 /home/nico/Downloads/Real-Time-Systems/Ada_Drivers_Library/boards/MicroBit/obj/zfp_lib_Debug/libada_drivers_library.a(cortex_m-nvic.o)
 .rodata        0x0000000000000000       0x12 /home/nico/Downloads/Real-Time-Systems/Ada_Drivers_Library/boards/MicroBit/obj/zfp_lib_Debug/libada_drivers_library.a(cortex_m-nvic.o)
 .text.cortex_m__nvic__set_priority
                0x0000000000000000       0x9c /home/nico/Downloads/Real-Time-Systems/Ada_Drivers_Library/boards/MicroBit/obj/zfp_lib_Debug/libada_drivers_library.a(cortex_m-nvic.o)
 .text.cortex_m__nvic__disable
                0x0000000000000000       0x20 /home/nico/Downloads/Real-Time-Systems/Ada_Drivers_Library/boards/MicroBit/obj/zfp_lib_Debug/libada_drivers_library.a(cortex_m-nvic.o)
 .text.cortex_m__nvic__enabled
                0x0000000000000000       0x2c /home/nico/Downloads/Real-Time-Systems/Ada_Drivers_Library/boards/MicroBit/obj/zfp_lib_Debug/libada_drivers_library.a(cortex_m-nvic.o)
 .text.cortex_m__nvic__pending
                0x0000000000000000       0x30 /home/nico/Downloads/Real-Time-Systems/Ada_Drivers_Library/boards/MicroBit/obj/zfp_lib_Debug/libada_drivers_library.a(cortex_m-nvic.o)
 .text.cortex_m__nvic__set_pending
                0x0000000000000000       0x20 /home/nico/Downloads/Real-Time-Systems/Ada_Drivers_Library/boards/MicroBit/obj/zfp_lib_Debug/libada_drivers_library.a(cortex_m-nvic.o)
 .text.cortex_m__nvic__clear_pending
                0x0000000000000000       0x20 /home/nico/Downloads/Real-Time-Systems/Ada_Drivers_Library/boards/MicroBit/obj/zfp_lib_Debug/libada_drivers_library.a(cortex_m-nvic.o)
 .data          0x0000000000000000        0x0 /home/nico/Downloads/Real-Time-Systems/Ada_Drivers_Library/boards/MicroBit/obj/zfp_lib_Debug/libada_drivers_library.a(crt0.o)
 .bss           0x0000000000000000        0x0 /home/nico/Downloads/Real-Time-Systems/Ada_Drivers_Library/boards/MicroBit/obj/zfp_lib_Debug/libada_drivers_library.a(crt0.o)
 .text          0x0000000000000000        0x0 /home/nico/Downloads/Real-Time-Systems/Ada_Drivers_Library/boards/MicroBit/obj/zfp_lib_Debug/libada_drivers_library.a(microbit-accelerometer.o)
 .data          0x0000000000000000        0x0 /home/nico/Downloads/Real-Time-Systems/Ada_Drivers_Library/boards/MicroBit/obj/zfp_lib_Debug/libada_drivers_library.a(microbit-accelerometer.o)
 .bss           0x0000000000000000        0x0 /home/nico/Downloads/Real-Time-Systems/Ada_Drivers_Library/boards/MicroBit/obj/zfp_lib_Debug/libada_drivers_library.a(microbit-accelerometer.o)
 .text          0x0000000000000000        0x0 /home/nico/Downloads/Real-Time-Systems/Ada_Drivers_Library/boards/MicroBit/obj/zfp_lib_Debug/libada_drivers_library.a(microbit-console.o)
 .data          0x0000000000000000        0x0 /home/nico/Downloads/Real-Time-Systems/Ada_Drivers_Library/boards/MicroBit/obj/zfp_lib_Debug/libada_drivers_library.a(microbit-console.o)
 .bss           0x0000000000000000        0x0 /home/nico/Downloads/Real-Time-Systems/Ada_Drivers_Library/boards/MicroBit/obj/zfp_lib_Debug/libada_drivers_library.a(microbit-console.o)
 .text.microbit__console__get
                0x0000000000000000       0x3c /home/nico/Downloads/Real-Time-Systems/Ada_Drivers_Library/boards/MicroBit/obj/zfp_lib_Debug/libada_drivers_library.a(microbit-console.o)
 .text.microbit__console__put
                0x0000000000000000       0x44 /home/nico/Downloads/Real-Time-Systems/Ada_Drivers_Library/boards/MicroBit/obj/zfp_lib_Debug/libada_drivers_library.a(microbit-console.o)
 .rodata.microbit__console__uart
                0x0000000000000000        0x4 /home/nico/Downloads/Real-Time-Systems/Ada_Drivers_Library/boards/MicroBit/obj/zfp_lib_Debug/libada_drivers_library.a(microbit-console.o)
 .text          0x0000000000000000        0x0 /home/nico/Downloads/Real-Time-Systems/Ada_Drivers_Library/boards/MicroBit/obj/zfp_lib_Debug/libada_drivers_library.a(microbit-display.o)
 .data          0x0000000000000000        0x0 /home/nico/Downloads/Real-Time-Systems/Ada_Drivers_Library/boards/MicroBit/obj/zfp_lib_Debug/libada_drivers_library.a(microbit-display.o)
 .bss           0x0000000000000000        0x0 /home/nico/Downloads/Real-Time-Systems/Ada_Drivers_Library/boards/MicroBit/obj/zfp_lib_Debug/libada_drivers_library.a(microbit-display.o)
 .text.microbit__display__led_pointIP
                0x0000000000000000       0x10 /home/nico/Downloads/Real-Time-Systems/Ada_Drivers_Library/boards/MicroBit/obj/zfp_lib_Debug/libada_drivers_library.a(microbit-display.o)
 .text.microbit__display__TglyphBIP
                0x0000000000000000       0x10 /home/nico/Downloads/Real-Time-Systems/Ada_Drivers_Library/boards/MicroBit/obj/zfp_lib_Debug/libada_drivers_library.a(microbit-display.o)
 .text.microbit__display__set
                0x0000000000000000       0x54 /home/nico/Downloads/Real-Time-Systems/Ada_Drivers_Library/boards/MicroBit/obj/zfp_lib_Debug/libada_drivers_library.a(microbit-display.o)
 .text.microbit__display__clear
                0x0000000000000000       0x54 /home/nico/Downloads/Real-Time-Systems/Ada_Drivers_Library/boards/MicroBit/obj/zfp_lib_Debug/libada_drivers_library.a(microbit-display.o)
 .text.microbit__display__clear__2
                0x0000000000000000       0x1c /home/nico/Downloads/Real-Time-Systems/Ada_Drivers_Library/boards/MicroBit/obj/zfp_lib_Debug/libada_drivers_library.a(microbit-display.o)
 .text.microbit__display__display
                0x0000000000000000       0x20 /home/nico/Downloads/Real-Time-Systems/Ada_Drivers_Library/boards/MicroBit/obj/zfp_lib_Debug/libada_drivers_library.a(microbit-display.o)
 .text.microbit__display__display__2
                0x0000000000000000       0x74 /home/nico/Downloads/Real-Time-Systems/Ada_Drivers_Library/boards/MicroBit/obj/zfp_lib_Debug/libada_drivers_library.a(microbit-display.o)
 .text.microbit__display__display_async
                0x0000000000000000      0x1c0 /home/nico/Downloads/Real-Time-Systems/Ada_Drivers_Library/boards/MicroBit/obj/zfp_lib_Debug/libada_drivers_library.a(microbit-display.o)
 .text.microbit__display__set_animation_step_duration
                0x0000000000000000       0x18 /home/nico/Downloads/Real-Time-Systems/Ada_Drivers_Library/boards/MicroBit/obj/zfp_lib_Debug/libada_drivers_library.a(microbit-display.o)
 .text.microbit__display__animation_in_progress
                0x0000000000000000       0x1c /home/nico/Downloads/Real-Time-Systems/Ada_Drivers_Library/boards/MicroBit/obj/zfp_lib_Debug/libada_drivers_library.a(microbit-display.o)
 .text          0x0000000000000000        0x0 /home/nico/Downloads/Real-Time-Systems/Ada_Drivers_Library/boards/MicroBit/obj/zfp_lib_Debug/libada_drivers_library.a(microbit-i2c.o)
 .data          0x0000000000000000        0x0 /home/nico/Downloads/Real-Time-Systems/Ada_Drivers_Library/boards/MicroBit/obj/zfp_lib_Debug/libada_drivers_library.a(microbit-i2c.o)
 .bss           0x0000000000000000        0x0 /home/nico/Downloads/Real-Time-Systems/Ada_Drivers_Library/boards/MicroBit/obj/zfp_lib_Debug/libada_drivers_library.a(microbit-i2c.o)
 .rodata.microbit__i2c__device
                0x0000000000000000        0x4 /home/nico/Downloads/Real-Time-Systems/Ada_Drivers_Library/boards/MicroBit/obj/zfp_lib_Debug/libada_drivers_library.a(microbit-i2c.o)
 .text          0x0000000000000000        0x0 /home/nico/Downloads/Real-Time-Systems/Ada_Drivers_Library/boards/MicroBit/obj/zfp_lib_Debug/libada_drivers_library.a(microbit-ios.o)
 .data          0x0000000000000000        0x0 /home/nico/Downloads/Real-Time-Systems/Ada_Drivers_Library/boards/MicroBit/obj/zfp_lib_Debug/libada_drivers_library.a(microbit-ios.o)
 .bss           0x0000000000000000        0x0 /home/nico/Downloads/Real-Time-Systems/Ada_Drivers_Library/boards/MicroBit/obj/zfp_lib_Debug/libada_drivers_library.a(microbit-ios.o)
 .text.microbit__ios__analog__2
                0x0000000000000000      0x100 /home/nico/Downloads/Real-Time-Systems/Ada_Drivers_Library/boards/MicroBit/obj/zfp_lib_Debug/libada_drivers_library.a(microbit-ios.o)
 .rodata.microbit__ios__analog__2
                0x0000000000000000       0x2c /home/nico/Downloads/Real-Time-Systems/Ada_Drivers_Library/boards/MicroBit/obj/zfp_lib_Debug/libada_drivers_library.a(microbit-ios.o)
 .rodata.microbit__ios__no_pwm
                0x0000000000000000        0x1 /home/nico/Downloads/Real-Time-Systems/Ada_Drivers_Library/boards/MicroBit/obj/zfp_lib_Debug/libada_drivers_library.a(microbit-ios.o)
 .rodata.microbit__ios__pwm_timer
                0x0000000000000000        0x4 /home/nico/Downloads/Real-Time-Systems/Ada_Drivers_Library/boards/MicroBit/obj/zfp_lib_Debug/libada_drivers_library.a(microbit-ios.o)
 .rodata.microbit__ios__pwm_interrupt
                0x0000000000000000        0x1 /home/nico/Downloads/Real-Time-Systems/Ada_Drivers_Library/boards/MicroBit/obj/zfp_lib_Debug/libada_drivers_library.a(microbit-ios.o)
 .rodata.microbit__ios__pwm_global_compare
                0x0000000000000000        0x1 /home/nico/Downloads/Real-Time-Systems/Ada_Drivers_Library/boards/MicroBit/obj/zfp_lib_Debug/libada_drivers_library.a(microbit-ios.o)
 .text          0x0000000000000000        0x0 /home/nico/Downloads/Real-Time-Systems/Ada_Drivers_Library/boards/MicroBit/obj/zfp_lib_Debug/libada_drivers_library.a(microbit-servos.o)
 .data          0x0000000000000000        0x0 /home/nico/Downloads/Real-Time-Systems/Ada_Drivers_Library/boards/MicroBit/obj/zfp_lib_Debug/libada_drivers_library.a(microbit-servos.o)
 .bss           0x0000000000000000        0x0 /home/nico/Downloads/Real-Time-Systems/Ada_Drivers_Library/boards/MicroBit/obj/zfp_lib_Debug/libada_drivers_library.a(microbit-servos.o)
 .text.microbit__servos__stop
                0x0000000000000000       0x44 /home/nico/Downloads/Real-Time-Systems/Ada_Drivers_Library/boards/MicroBit/obj/zfp_lib_Debug/libada_drivers_library.a(microbit-servos.o)
 .text          0x0000000000000000        0x0 /home/nico/Downloads/Real-Time-Systems/Ada_Drivers_Library/boards/MicroBit/obj/zfp_lib_Debug/libada_drivers_library.a(microbit-time.o)
 .data          0x0000000000000000        0x0 /home/nico/Downloads/Real-Time-Systems/Ada_Drivers_Library/boards/MicroBit/obj/zfp_lib_Debug/libada_drivers_library.a(microbit-time.o)
 .bss           0x0000000000000000        0x0 /home/nico/Downloads/Real-Time-Systems/Ada_Drivers_Library/boards/MicroBit/obj/zfp_lib_Debug/libada_drivers_library.a(microbit-time.o)
 .text.microbit__time__tick_period
                0x0000000000000000       0x14 /home/nico/Downloads/Real-Time-Systems/Ada_Drivers_Library/boards/MicroBit/obj/zfp_lib_Debug/libada_drivers_library.a(microbit-time.o)
 .text.microbit__time__tick_unsubscribe___postconditions.5055
                0x0000000000000000       0x58 /home/nico/Downloads/Real-Time-Systems/Ada_Drivers_Library/boards/MicroBit/obj/zfp_lib_Debug/libada_drivers_library.a(microbit-time.o)
 .text.microbit__time__tick_unsubscribe
                0x0000000000000000       0xb0 /home/nico/Downloads/Real-Time-Systems/Ada_Drivers_Library/boards/MicroBit/obj/zfp_lib_Debug/libada_drivers_library.a(microbit-time.o)
 .rodata.microbit__time__mb_delaysP
                0x0000000000000000        0x4 /home/nico/Downloads/Real-Time-Systems/Ada_Drivers_Library/boards/MicroBit/obj/zfp_lib_Debug/libada_drivers_library.a(microbit-time.o)
 .rodata.microbit__time__mb_delaysY
                0x0000000000000000        0x4 /home/nico/Downloads/Real-Time-Systems/Ada_Drivers_Library/boards/MicroBit/obj/zfp_lib_Debug/libada_drivers_library.a(microbit-time.o)
 .rodata.microbit__time__mb_delaysR19s
                0x0000000000000000        0x4 /home/nico/Downloads/Real-Time-Systems/Ada_Drivers_Library/boards/MicroBit/obj/zfp_lib_Debug/libada_drivers_library.a(microbit-time.o)
 .rodata.microbit__time__period_ms
                0x0000000000000000        0x8 /home/nico/Downloads/Real-Time-Systems/Ada_Drivers_Library/boards/MicroBit/obj/zfp_lib_Debug/libada_drivers_library.a(microbit-time.o)
 .text          0x0000000000000000        0x0 /home/nico/Downloads/Real-Time-Systems/Ada_Drivers_Library/boards/MicroBit/obj/zfp_lib_Debug/libada_drivers_library.a(mma8653.o)
 .data          0x0000000000000000        0x0 /home/nico/Downloads/Real-Time-Systems/Ada_Drivers_Library/boards/MicroBit/obj/zfp_lib_Debug/libada_drivers_library.a(mma8653.o)
 .bss           0x0000000000000000        0x0 /home/nico/Downloads/Real-Time-Systems/Ada_Drivers_Library/boards/MicroBit/obj/zfp_lib_Debug/libada_drivers_library.a(mma8653.o)
 .text.mma8653__all_axes_dataIP
                0x0000000000000000       0x10 /home/nico/Downloads/Real-Time-Systems/Ada_Drivers_Library/boards/MicroBit/obj/zfp_lib_Debug/libada_drivers_library.a(mma8653.o)
 .rodata.mma8653__device_address
                0x0000000000000000        0x2 /home/nico/Downloads/Real-Time-Systems/Ada_Drivers_Library/boards/MicroBit/obj/zfp_lib_Debug/libada_drivers_library.a(mma8653.o)
 .rodata.mma8653__data_status
                0x0000000000000000        0x1 /home/nico/Downloads/Real-Time-Systems/Ada_Drivers_Library/boards/MicroBit/obj/zfp_lib_Debug/libada_drivers_library.a(mma8653.o)
 .rodata.mma8653__out_x_msb
                0x0000000000000000        0x1 /home/nico/Downloads/Real-Time-Systems/Ada_Drivers_Library/boards/MicroBit/obj/zfp_lib_Debug/libada_drivers_library.a(mma8653.o)
 .rodata.mma8653__out_x_lsb
                0x0000000000000000        0x1 /home/nico/Downloads/Real-Time-Systems/Ada_Drivers_Library/boards/MicroBit/obj/zfp_lib_Debug/libada_drivers_library.a(mma8653.o)
 .rodata.mma8653__out_y_msb
                0x0000000000000000        0x1 /home/nico/Downloads/Real-Time-Systems/Ada_Drivers_Library/boards/MicroBit/obj/zfp_lib_Debug/libada_drivers_library.a(mma8653.o)
 .rodata.mma8653__out_y_lsb
                0x0000000000000000        0x1 /home/nico/Downloads/Real-Time-Systems/Ada_Drivers_Library/boards/MicroBit/obj/zfp_lib_Debug/libada_drivers_library.a(mma8653.o)
 .rodata.mma8653__out_z_msb
                0x0000000000000000        0x1 /home/nico/Downloads/Real-Time-Systems/Ada_Drivers_Library/boards/MicroBit/obj/zfp_lib_Debug/libada_drivers_library.a(mma8653.o)
 .rodata.mma8653__out_z_lsb
                0x0000000000000000        0x1 /home/nico/Downloads/Real-Time-Systems/Ada_Drivers_Library/boards/MicroBit/obj/zfp_lib_Debug/libada_drivers_library.a(mma8653.o)
 .rodata.mma8653__who_am_i
                0x0000000000000000        0x1 /home/nico/Downloads/Real-Time-Systems/Ada_Drivers_Library/boards/MicroBit/obj/zfp_lib_Debug/libada_drivers_library.a(mma8653.o)
 .rodata.mma8653__xyz_data_cfg
                0x0000000000000000        0x1 /home/nico/Downloads/Real-Time-Systems/Ada_Drivers_Library/boards/MicroBit/obj/zfp_lib_Debug/libada_drivers_library.a(mma8653.o)
 .rodata.mma8653__ctrl_reg1
                0x0000000000000000        0x1 /home/nico/Downloads/Real-Time-Systems/Ada_Drivers_Library/boards/MicroBit/obj/zfp_lib_Debug/libada_drivers_library.a(mma8653.o)
 .rodata.mma8653__ctrl_reg2
                0x0000000000000000        0x1 /home/nico/Downloads/Real-Time-Systems/Ada_Drivers_Library/boards/MicroBit/obj/zfp_lib_Debug/libada_drivers_library.a(mma8653.o)
 .rodata.mma8653__ctrl_reg3
                0x0000000000000000        0x1 /home/nico/Downloads/Real-Time-Systems/Ada_Drivers_Library/boards/MicroBit/obj/zfp_lib_Debug/libada_drivers_library.a(mma8653.o)
 .rodata.mma8653__ctrl_reg4
                0x0000000000000000        0x1 /home/nico/Downloads/Real-Time-Systems/Ada_Drivers_Library/boards/MicroBit/obj/zfp_lib_Debug/libada_drivers_library.a(mma8653.o)
 .rodata.mma8653__ctrl_reg5
                0x0000000000000000        0x1 /home/nico/Downloads/Real-Time-Systems/Ada_Drivers_Library/boards/MicroBit/obj/zfp_lib_Debug/libada_drivers_library.a(mma8653.o)
 .rodata.mma8653__mma8653_accelerometerP
                0x0000000000000000        0x4 /home/nico/Downloads/Real-Time-Systems/Ada_Drivers_Library/boards/MicroBit/obj/zfp_lib_Debug/libada_drivers_library.a(mma8653.o)
 .rodata.mma8653__mma8653_accelerometerY
                0x0000000000000000        0x4 /home/nico/Downloads/Real-Time-Systems/Ada_Drivers_Library/boards/MicroBit/obj/zfp_lib_Debug/libada_drivers_library.a(mma8653.o)
 .rodata.mma8653__mma8653_accelerometerR10s
                0x0000000000000000        0x4 /home/nico/Downloads/Real-Time-Systems/Ada_Drivers_Library/boards/MicroBit/obj/zfp_lib_Debug/libada_drivers_library.a(mma8653.o)
 .text          0x0000000000000000        0x0 /home/nico/Downloads/Real-Time-Systems/Ada_Drivers_Library/boards/MicroBit/obj/zfp_lib_Debug/libada_drivers_library.a(nrf51-adc.o)
 .data          0x0000000000000000        0x0 /home/nico/Downloads/Real-Time-Systems/Ada_Drivers_Library/boards/MicroBit/obj/zfp_lib_Debug/libada_drivers_library.a(nrf51-adc.o)
 .bss           0x0000000000000000        0x0 /home/nico/Downloads/Real-Time-Systems/Ada_Drivers_Library/boards/MicroBit/obj/zfp_lib_Debug/libada_drivers_library.a(nrf51-adc.o)
 .rodata        0x0000000000000000        0xe /home/nico/Downloads/Real-Time-Systems/Ada_Drivers_Library/boards/MicroBit/obj/zfp_lib_Debug/libada_drivers_library.a(nrf51-adc.o)
 .text.nrf51__adc__set_resolution
                0x0000000000000000       0x84 /home/nico/Downloads/Real-Time-Systems/Ada_Drivers_Library/boards/MicroBit/obj/zfp_lib_Debug/libada_drivers_library.a(nrf51-adc.o)
 .text.nrf51__adc__set_reference
                0x0000000000000000      0x15c /home/nico/Downloads/Real-Time-Systems/Ada_Drivers_Library/boards/MicroBit/obj/zfp_lib_Debug/libada_drivers_library.a(nrf51-adc.o)
 .text.nrf51__adc__start_pin_conversion
                0x0000000000000000      0x25c /home/nico/Downloads/Real-Time-Systems/Ada_Drivers_Library/boards/MicroBit/obj/zfp_lib_Debug/libada_drivers_library.a(nrf51-adc.o)
 .rodata.nrf51__adc__start_pin_conversion
                0x0000000000000000       0x1c /home/nico/Downloads/Real-Time-Systems/Ada_Drivers_Library/boards/MicroBit/obj/zfp_lib_Debug/libada_drivers_library.a(nrf51-adc.o)
 .text.nrf51__adc__start_vdd_conversion
                0x0000000000000000       0xf4 /home/nico/Downloads/Real-Time-Systems/Ada_Drivers_Library/boards/MicroBit/obj/zfp_lib_Debug/libada_drivers_library.a(nrf51-adc.o)
 .text.nrf51__adc__busy
                0x0000000000000000       0x2c /home/nico/Downloads/Real-Time-Systems/Ada_Drivers_Library/boards/MicroBit/obj/zfp_lib_Debug/libada_drivers_library.a(nrf51-adc.o)
 .text.nrf51__adc__wait_for_result
                0x0000000000000000       0x64 /home/nico/Downloads/Real-Time-Systems/Ada_Drivers_Library/boards/MicroBit/obj/zfp_lib_Debug/libada_drivers_library.a(nrf51-adc.o)
 .text          0x0000000000000000        0x0 /home/nico/Downloads/Real-Time-Systems/Ada_Drivers_Library/boards/MicroBit/obj/zfp_lib_Debug/libada_drivers_library.a(nrf51-clock.o)
 .data          0x0000000000000000        0x0 /home/nico/Downloads/Real-Time-Systems/Ada_Drivers_Library/boards/MicroBit/obj/zfp_lib_Debug/libada_drivers_library.a(nrf51-clock.o)
 .bss           0x0000000000000000        0x0 /home/nico/Downloads/Real-Time-Systems/Ada_Drivers_Library/boards/MicroBit/obj/zfp_lib_Debug/libada_drivers_library.a(nrf51-clock.o)
 .text.nrf51__clock__set_high_freq_external_frequency
                0x0000000000000000       0x60 /home/nico/Downloads/Real-Time-Systems/Ada_Drivers_Library/boards/MicroBit/obj/zfp_lib_Debug/libada_drivers_library.a(nrf51-clock.o)
 .text.nrf51__clock__set_high_freq_source
                0x0000000000000000       0x68 /home/nico/Downloads/Real-Time-Systems/Ada_Drivers_Library/boards/MicroBit/obj/zfp_lib_Debug/libada_drivers_library.a(nrf51-clock.o)
 .text.nrf51__clock__high_freq_source
                0x0000000000000000       0x40 /home/nico/Downloads/Real-Time-Systems/Ada_Drivers_Library/boards/MicroBit/obj/zfp_lib_Debug/libada_drivers_library.a(nrf51-clock.o)
 .text.nrf51__clock__high_freq_running
                0x0000000000000000       0x30 /home/nico/Downloads/Real-Time-Systems/Ada_Drivers_Library/boards/MicroBit/obj/zfp_lib_Debug/libada_drivers_library.a(nrf51-clock.o)
 .text.nrf51__clock__start_high_freq
                0x0000000000000000       0x14 /home/nico/Downloads/Real-Time-Systems/Ada_Drivers_Library/boards/MicroBit/obj/zfp_lib_Debug/libada_drivers_library.a(nrf51-clock.o)
 .text.nrf51__clock__stop_high_freq
                0x0000000000000000       0x14 /home/nico/Downloads/Real-Time-Systems/Ada_Drivers_Library/boards/MicroBit/obj/zfp_lib_Debug/libada_drivers_library.a(nrf51-clock.o)
 .text.nrf51__clock__low_freq_source
                0x0000000000000000       0x48 /home/nico/Downloads/Real-Time-Systems/Ada_Drivers_Library/boards/MicroBit/obj/zfp_lib_Debug/libada_drivers_library.a(nrf51-clock.o)
 .text.nrf51__clock__stop_low_freq
                0x0000000000000000       0x14 /home/nico/Downloads/Real-Time-Systems/Ada_Drivers_Library/boards/MicroBit/obj/zfp_lib_Debug/libada_drivers_library.a(nrf51-clock.o)
 .text          0x0000000000000000        0x0 /home/nico/Downloads/Real-Time-Systems/Ada_Drivers_Library/boards/MicroBit/obj/zfp_lib_Debug/libada_drivers_library.a(nrf51-device.o)
 .data          0x0000000000000000        0x0 /home/nico/Downloads/Real-Time-Systems/Ada_Drivers_Library/boards/MicroBit/obj/zfp_lib_Debug/libada_drivers_library.a(nrf51-device.o)
 .bss           0x0000000000000000        0x0 /home/nico/Downloads/Real-Time-Systems/Ada_Drivers_Library/boards/MicroBit/obj/zfp_lib_Debug/libada_drivers_library.a(nrf51-device.o)
 .text          0x0000000000000000        0x0 /home/nico/Downloads/Real-Time-Systems/Ada_Drivers_Library/boards/MicroBit/obj/zfp_lib_Debug/libada_drivers_library.a(nrf51-events.o)
 .data          0x0000000000000000        0x0 /home/nico/Downloads/Real-Time-Systems/Ada_Drivers_Library/boards/MicroBit/obj/zfp_lib_Debug/libada_drivers_library.a(nrf51-events.o)
 .bss           0x0000000000000000        0x0 /home/nico/Downloads/Real-Time-Systems/Ada_Drivers_Library/boards/MicroBit/obj/zfp_lib_Debug/libada_drivers_library.a(nrf51-events.o)
 .text.nrf51__events__triggered
                0x0000000000000000       0x38 /home/nico/Downloads/Real-Time-Systems/Ada_Drivers_Library/boards/MicroBit/obj/zfp_lib_Debug/libada_drivers_library.a(nrf51-events.o)
 .text.nrf51__events__disable_interrupt
                0x0000000000000000       0x7c /home/nico/Downloads/Real-Time-Systems/Ada_Drivers_Library/boards/MicroBit/obj/zfp_lib_Debug/libada_drivers_library.a(nrf51-events.o)
 .text.nrf51__events__get_address
                0x0000000000000000       0x14 /home/nico/Downloads/Real-Time-Systems/Ada_Drivers_Library/boards/MicroBit/obj/zfp_lib_Debug/libada_drivers_library.a(nrf51-events.o)
 .rodata.nrf51__events__power_pofwarn
                0x0000000000000000        0x4 /home/nico/Downloads/Real-Time-Systems/Ada_Drivers_Library/boards/MicroBit/obj/zfp_lib_Debug/libada_drivers_library.a(nrf51-events.o)
 .rodata.nrf51__events__clock_hfclkstarted
                0x0000000000000000        0x4 /home/nico/Downloads/Real-Time-Systems/Ada_Drivers_Library/boards/MicroBit/obj/zfp_lib_Debug/libada_drivers_library.a(nrf51-events.o)
 .rodata.nrf51__events__clock_lfclkstarted
                0x0000000000000000        0x4 /home/nico/Downloads/Real-Time-Systems/Ada_Drivers_Library/boards/MicroBit/obj/zfp_lib_Debug/libada_drivers_library.a(nrf51-events.o)
 .rodata.nrf51__events__clock_done
                0x0000000000000000        0x4 /home/nico/Downloads/Real-Time-Systems/Ada_Drivers_Library/boards/MicroBit/obj/zfp_lib_Debug/libada_drivers_library.a(nrf51-events.o)
 .rodata.nrf51__events__clock_ctto
                0x0000000000000000        0x4 /home/nico/Downloads/Real-Time-Systems/Ada_Drivers_Library/boards/MicroBit/obj/zfp_lib_Debug/libada_drivers_library.a(nrf51-events.o)
 .rodata.nrf51__events__gpiote_in_0
                0x0000000000000000        0x4 /home/nico/Downloads/Real-Time-Systems/Ada_Drivers_Library/boards/MicroBit/obj/zfp_lib_Debug/libada_drivers_library.a(nrf51-events.o)
 .rodata.nrf51__events__gpiote_in_1
                0x0000000000000000        0x4 /home/nico/Downloads/Real-Time-Systems/Ada_Drivers_Library/boards/MicroBit/obj/zfp_lib_Debug/libada_drivers_library.a(nrf51-events.o)
 .rodata.nrf51__events__gpiote_in_2
                0x0000000000000000        0x4 /home/nico/Downloads/Real-Time-Systems/Ada_Drivers_Library/boards/MicroBit/obj/zfp_lib_Debug/libada_drivers_library.a(nrf51-events.o)
 .rodata.nrf51__events__gpiote_in_3
                0x0000000000000000        0x4 /home/nico/Downloads/Real-Time-Systems/Ada_Drivers_Library/boards/MicroBit/obj/zfp_lib_Debug/libada_drivers_library.a(nrf51-events.o)
 .rodata.nrf51__events__gpiote_port
                0x0000000000000000        0x4 /home/nico/Downloads/Real-Time-Systems/Ada_Drivers_Library/boards/MicroBit/obj/zfp_lib_Debug/libada_drivers_library.a(nrf51-events.o)
 .rodata.nrf51__events__radio_ready
                0x0000000000000000        0x4 /home/nico/Downloads/Real-Time-Systems/Ada_Drivers_Library/boards/MicroBit/obj/zfp_lib_Debug/libada_drivers_library.a(nrf51-events.o)
 .rodata.nrf51__events__radio_address
                0x0000000000000000        0x4 /home/nico/Downloads/Real-Time-Systems/Ada_Drivers_Library/boards/MicroBit/obj/zfp_lib_Debug/libada_drivers_library.a(nrf51-events.o)
 .rodata.nrf51__events__radio_payload
                0x0000000000000000        0x4 /home/nico/Downloads/Real-Time-Systems/Ada_Drivers_Library/boards/MicroBit/obj/zfp_lib_Debug/libada_drivers_library.a(nrf51-events.o)
 .rodata.nrf51__events__radio_end
                0x0000000000000000        0x4 /home/nico/Downloads/Real-Time-Systems/Ada_Drivers_Library/boards/MicroBit/obj/zfp_lib_Debug/libada_drivers_library.a(nrf51-events.o)
 .rodata.nrf51__events__radio_disabled
                0x0000000000000000        0x4 /home/nico/Downloads/Real-Time-Systems/Ada_Drivers_Library/boards/MicroBit/obj/zfp_lib_Debug/libada_drivers_library.a(nrf51-events.o)
 .rodata.nrf51__events__radio_devmatch
                0x0000000000000000        0x4 /home/nico/Downloads/Real-Time-Systems/Ada_Drivers_Library/boards/MicroBit/obj/zfp_lib_Debug/libada_drivers_library.a(nrf51-events.o)
 .rodata.nrf51__events__radio_devmiss
                0x0000000000000000        0x4 /home/nico/Downloads/Real-Time-Systems/Ada_Drivers_Library/boards/MicroBit/obj/zfp_lib_Debug/libada_drivers_library.a(nrf51-events.o)
 .rodata.nrf51__events__radio_rssiend
                0x0000000000000000        0x4 /home/nico/Downloads/Real-Time-Systems/Ada_Drivers_Library/boards/MicroBit/obj/zfp_lib_Debug/libada_drivers_library.a(nrf51-events.o)
 .rodata.nrf51__events__radio_bcmatch
                0x0000000000000000        0x4 /home/nico/Downloads/Real-Time-Systems/Ada_Drivers_Library/boards/MicroBit/obj/zfp_lib_Debug/libada_drivers_library.a(nrf51-events.o)
 .rodata.nrf51__events__timer_0_compare_0
                0x0000000000000000        0x4 /home/nico/Downloads/Real-Time-Systems/Ada_Drivers_Library/boards/MicroBit/obj/zfp_lib_Debug/libada_drivers_library.a(nrf51-events.o)
 .rodata.nrf51__events__timer_0_compare_1
                0x0000000000000000        0x4 /home/nico/Downloads/Real-Time-Systems/Ada_Drivers_Library/boards/MicroBit/obj/zfp_lib_Debug/libada_drivers_library.a(nrf51-events.o)
 .rodata.nrf51__events__timer_0_compare_2
                0x0000000000000000        0x4 /home/nico/Downloads/Real-Time-Systems/Ada_Drivers_Library/boards/MicroBit/obj/zfp_lib_Debug/libada_drivers_library.a(nrf51-events.o)
 .rodata.nrf51__events__timer_0_compare_3
                0x0000000000000000        0x4 /home/nico/Downloads/Real-Time-Systems/Ada_Drivers_Library/boards/MicroBit/obj/zfp_lib_Debug/libada_drivers_library.a(nrf51-events.o)
 .rodata.nrf51__events__timer_1_compare_0
                0x0000000000000000        0x4 /home/nico/Downloads/Real-Time-Systems/Ada_Drivers_Library/boards/MicroBit/obj/zfp_lib_Debug/libada_drivers_library.a(nrf51-events.o)
 .rodata.nrf51__events__timer_1_compare_1
                0x0000000000000000        0x4 /home/nico/Downloads/Real-Time-Systems/Ada_Drivers_Library/boards/MicroBit/obj/zfp_lib_Debug/libada_drivers_library.a(nrf51-events.o)
 .rodata.nrf51__events__timer_1_compare_2
                0x0000000000000000        0x4 /home/nico/Downloads/Real-Time-Systems/Ada_Drivers_Library/boards/MicroBit/obj/zfp_lib_Debug/libada_drivers_library.a(nrf51-events.o)
 .rodata.nrf51__events__timer_1_compare_3
                0x0000000000000000        0x4 /home/nico/Downloads/Real-Time-Systems/Ada_Drivers_Library/boards/MicroBit/obj/zfp_lib_Debug/libada_drivers_library.a(nrf51-events.o)
 .rodata.nrf51__events__timer_2_compare_0
                0x0000000000000000        0x4 /home/nico/Downloads/Real-Time-Systems/Ada_Drivers_Library/boards/MicroBit/obj/zfp_lib_Debug/libada_drivers_library.a(nrf51-events.o)
 .rodata.nrf51__events__timer_2_compare_1
                0x0000000000000000        0x4 /home/nico/Downloads/Real-Time-Systems/Ada_Drivers_Library/boards/MicroBit/obj/zfp_lib_Debug/libada_drivers_library.a(nrf51-events.o)
 .rodata.nrf51__events__timer_2_compare_2
                0x0000000000000000        0x4 /home/nico/Downloads/Real-Time-Systems/Ada_Drivers_Library/boards/MicroBit/obj/zfp_lib_Debug/libada_drivers_library.a(nrf51-events.o)
 .rodata.nrf51__events__timer_2_compare_3
                0x0000000000000000        0x4 /home/nico/Downloads/Real-Time-Systems/Ada_Drivers_Library/boards/MicroBit/obj/zfp_lib_Debug/libada_drivers_library.a(nrf51-events.o)
 .rodata.nrf51__events__rtc_0_tick
                0x0000000000000000        0x4 /home/nico/Downloads/Real-Time-Systems/Ada_Drivers_Library/boards/MicroBit/obj/zfp_lib_Debug/libada_drivers_library.a(nrf51-events.o)
 .rodata.nrf51__events__rtc_0_overflw
                0x0000000000000000        0x4 /home/nico/Downloads/Real-Time-Systems/Ada_Drivers_Library/boards/MicroBit/obj/zfp_lib_Debug/libada_drivers_library.a(nrf51-events.o)
 .rodata.nrf51__events__rtc_0_compare_0
                0x0000000000000000        0x4 /home/nico/Downloads/Real-Time-Systems/Ada_Drivers_Library/boards/MicroBit/obj/zfp_lib_Debug/libada_drivers_library.a(nrf51-events.o)
 .rodata.nrf51__events__rtc_0_compare_1
                0x0000000000000000        0x4 /home/nico/Downloads/Real-Time-Systems/Ada_Drivers_Library/boards/MicroBit/obj/zfp_lib_Debug/libada_drivers_library.a(nrf51-events.o)
 .rodata.nrf51__events__rtc_0_compare_2
                0x0000000000000000        0x4 /home/nico/Downloads/Real-Time-Systems/Ada_Drivers_Library/boards/MicroBit/obj/zfp_lib_Debug/libada_drivers_library.a(nrf51-events.o)
 .rodata.nrf51__events__rtc_0_compare_3
                0x0000000000000000        0x4 /home/nico/Downloads/Real-Time-Systems/Ada_Drivers_Library/boards/MicroBit/obj/zfp_lib_Debug/libada_drivers_library.a(nrf51-events.o)
 .rodata.nrf51__events__rtc_1_tick
                0x0000000000000000        0x4 /home/nico/Downloads/Real-Time-Systems/Ada_Drivers_Library/boards/MicroBit/obj/zfp_lib_Debug/libada_drivers_library.a(nrf51-events.o)
 .rodata.nrf51__events__rtc_1_overflw
                0x0000000000000000        0x4 /home/nico/Downloads/Real-Time-Systems/Ada_Drivers_Library/boards/MicroBit/obj/zfp_lib_Debug/libada_drivers_library.a(nrf51-events.o)
 .rodata.nrf51__events__rtc_1_compare_0
                0x0000000000000000        0x4 /home/nico/Downloads/Real-Time-Systems/Ada_Drivers_Library/boards/MicroBit/obj/zfp_lib_Debug/libada_drivers_library.a(nrf51-events.o)
 .rodata.nrf51__events__rtc_1_compare_1
                0x0000000000000000        0x4 /home/nico/Downloads/Real-Time-Systems/Ada_Drivers_Library/boards/MicroBit/obj/zfp_lib_Debug/libada_drivers_library.a(nrf51-events.o)
 .rodata.nrf51__events__rtc_1_compare_2
                0x0000000000000000        0x4 /home/nico/Downloads/Real-Time-Systems/Ada_Drivers_Library/boards/MicroBit/obj/zfp_lib_Debug/libada_drivers_library.a(nrf51-events.o)
 .rodata.nrf51__events__rtc_1_compare_3
                0x0000000000000000        0x4 /home/nico/Downloads/Real-Time-Systems/Ada_Drivers_Library/boards/MicroBit/obj/zfp_lib_Debug/libada_drivers_library.a(nrf51-events.o)
 .rodata.nrf51__events__watchdog_timeout
                0x0000000000000000        0x4 /home/nico/Downloads/Real-Time-Systems/Ada_Drivers_Library/boards/MicroBit/obj/zfp_lib_Debug/libada_drivers_library.a(nrf51-events.o)
 .rodata.nrf51__events__rng_valrdy
                0x0000000000000000        0x4 /home/nico/Downloads/Real-Time-Systems/Ada_Drivers_Library/boards/MicroBit/obj/zfp_lib_Debug/libada_drivers_library.a(nrf51-events.o)
 .rodata.nrf51__events__temperature_datardy
                0x0000000000000000        0x4 /home/nico/Downloads/Real-Time-Systems/Ada_Drivers_Library/boards/MicroBit/obj/zfp_lib_Debug/libada_drivers_library.a(nrf51-events.o)
 .rodata.nrf51__events__ecb_end
                0x0000000000000000        0x4 /home/nico/Downloads/Real-Time-Systems/Ada_Drivers_Library/boards/MicroBit/obj/zfp_lib_Debug/libada_drivers_library.a(nrf51-events.o)
 .rodata.nrf51__events__ecb_error
                0x0000000000000000        0x4 /home/nico/Downloads/Real-Time-Systems/Ada_Drivers_Library/boards/MicroBit/obj/zfp_lib_Debug/libada_drivers_library.a(nrf51-events.o)
 .rodata.nrf51__events__ccm_ksgen_end
                0x0000000000000000        0x4 /home/nico/Downloads/Real-Time-Systems/Ada_Drivers_Library/boards/MicroBit/obj/zfp_lib_Debug/libada_drivers_library.a(nrf51-events.o)
 .rodata.nrf51__events__ccm_crypt_end
                0x0000000000000000        0x4 /home/nico/Downloads/Real-Time-Systems/Ada_Drivers_Library/boards/MicroBit/obj/zfp_lib_Debug/libada_drivers_library.a(nrf51-events.o)
 .rodata.nrf51__events__ccm_error
                0x0000000000000000        0x4 /home/nico/Downloads/Real-Time-Systems/Ada_Drivers_Library/boards/MicroBit/obj/zfp_lib_Debug/libada_drivers_library.a(nrf51-events.o)
 .rodata.nrf51__events__aar_end
                0x0000000000000000        0x4 /home/nico/Downloads/Real-Time-Systems/Ada_Drivers_Library/boards/MicroBit/obj/zfp_lib_Debug/libada_drivers_library.a(nrf51-events.o)
 .rodata.nrf51__events__aar_resolved
                0x0000000000000000        0x4 /home/nico/Downloads/Real-Time-Systems/Ada_Drivers_Library/boards/MicroBit/obj/zfp_lib_Debug/libada_drivers_library.a(nrf51-events.o)
 .rodata.nrf51__events__aar_notresolved
                0x0000000000000000        0x4 /home/nico/Downloads/Real-Time-Systems/Ada_Drivers_Library/boards/MicroBit/obj/zfp_lib_Debug/libada_drivers_library.a(nrf51-events.o)
 .rodata.nrf51__events__spi_0_ready
                0x0000000000000000        0x4 /home/nico/Downloads/Real-Time-Systems/Ada_Drivers_Library/boards/MicroBit/obj/zfp_lib_Debug/libada_drivers_library.a(nrf51-events.o)
 .rodata.nrf51__events__spi_1_ready
                0x0000000000000000        0x4 /home/nico/Downloads/Real-Time-Systems/Ada_Drivers_Library/boards/MicroBit/obj/zfp_lib_Debug/libada_drivers_library.a(nrf51-events.o)
 .rodata.nrf51__events__twi_0_stopped
                0x0000000000000000        0x4 /home/nico/Downloads/Real-Time-Systems/Ada_Drivers_Library/boards/MicroBit/obj/zfp_lib_Debug/libada_drivers_library.a(nrf51-events.o)
 .rodata.nrf51__events__twi_0_rxdrdy
                0x0000000000000000        0x4 /home/nico/Downloads/Real-Time-Systems/Ada_Drivers_Library/boards/MicroBit/obj/zfp_lib_Debug/libada_drivers_library.a(nrf51-events.o)
 .rodata.nrf51__events__twi_0_txdent
                0x0000000000000000        0x4 /home/nico/Downloads/Real-Time-Systems/Ada_Drivers_Library/boards/MicroBit/obj/zfp_lib_Debug/libada_drivers_library.a(nrf51-events.o)
 .rodata.nrf51__events__twi_0_erro
                0x0000000000000000        0x4 /home/nico/Downloads/Real-Time-Systems/Ada_Drivers_Library/boards/MicroBit/obj/zfp_lib_Debug/libada_drivers_library.a(nrf51-events.o)
 .rodata.nrf51__events__twi_0_bb
                0x0000000000000000        0x4 /home/nico/Downloads/Real-Time-Systems/Ada_Drivers_Library/boards/MicroBit/obj/zfp_lib_Debug/libada_drivers_library.a(nrf51-events.o)
 .rodata.nrf51__events__twi_0_suspended
                0x0000000000000000        0x4 /home/nico/Downloads/Real-Time-Systems/Ada_Drivers_Library/boards/MicroBit/obj/zfp_lib_Debug/libada_drivers_library.a(nrf51-events.o)
 .rodata.nrf51__events__twi_1_stopped
                0x0000000000000000        0x4 /home/nico/Downloads/Real-Time-Systems/Ada_Drivers_Library/boards/MicroBit/obj/zfp_lib_Debug/libada_drivers_library.a(nrf51-events.o)
 .rodata.nrf51__events__twi_1_rxdrdy
                0x0000000000000000        0x4 /home/nico/Downloads/Real-Time-Systems/Ada_Drivers_Library/boards/MicroBit/obj/zfp_lib_Debug/libada_drivers_library.a(nrf51-events.o)
 .rodata.nrf51__events__twi_1_txdent
                0x0000000000000000        0x4 /home/nico/Downloads/Real-Time-Systems/Ada_Drivers_Library/boards/MicroBit/obj/zfp_lib_Debug/libada_drivers_library.a(nrf51-events.o)
 .rodata.nrf51__events__twi_1_erro
                0x0000000000000000        0x4 /home/nico/Downloads/Real-Time-Systems/Ada_Drivers_Library/boards/MicroBit/obj/zfp_lib_Debug/libada_drivers_library.a(nrf51-events.o)
 .rodata.nrf51__events__twi_1_bb
                0x0000000000000000        0x4 /home/nico/Downloads/Real-Time-Systems/Ada_Drivers_Library/boards/MicroBit/obj/zfp_lib_Debug/libada_drivers_library.a(nrf51-events.o)
 .rodata.nrf51__events__twi_1_suspended
                0x0000000000000000        0x4 /home/nico/Downloads/Real-Time-Systems/Ada_Drivers_Library/boards/MicroBit/obj/zfp_lib_Debug/libada_drivers_library.a(nrf51-events.o)
 .rodata.nrf51__events__uart_rxdrdy
                0x0000000000000000        0x4 /home/nico/Downloads/Real-Time-Systems/Ada_Drivers_Library/boards/MicroBit/obj/zfp_lib_Debug/libada_drivers_library.a(nrf51-events.o)
 .rodata.nrf51__events__uart_txdrdy
                0x0000000000000000        0x4 /home/nico/Downloads/Real-Time-Systems/Ada_Drivers_Library/boards/MicroBit/obj/zfp_lib_Debug/libada_drivers_library.a(nrf51-events.o)
 .rodata.nrf51__events__uart_error
                0x0000000000000000        0x4 /home/nico/Downloads/Real-Time-Systems/Ada_Drivers_Library/boards/MicroBit/obj/zfp_lib_Debug/libada_drivers_library.a(nrf51-events.o)
 .rodata.nrf51__events__qdec_samplerdy
                0x0000000000000000        0x4 /home/nico/Downloads/Real-Time-Systems/Ada_Drivers_Library/boards/MicroBit/obj/zfp_lib_Debug/libada_drivers_library.a(nrf51-events.o)
 .rodata.nrf51__events__qdec_reportrdy
                0x0000000000000000        0x4 /home/nico/Downloads/Real-Time-Systems/Ada_Drivers_Library/boards/MicroBit/obj/zfp_lib_Debug/libada_drivers_library.a(nrf51-events.o)
 .rodata.nrf51__events__qdec_accof
                0x0000000000000000        0x4 /home/nico/Downloads/Real-Time-Systems/Ada_Drivers_Library/boards/MicroBit/obj/zfp_lib_Debug/libada_drivers_library.a(nrf51-events.o)
 .rodata.nrf51__events__adc_end
                0x0000000000000000        0x4 /home/nico/Downloads/Real-Time-Systems/Ada_Drivers_Library/boards/MicroBit/obj/zfp_lib_Debug/libada_drivers_library.a(nrf51-events.o)
 .text          0x0000000000000000        0x0 /home/nico/Downloads/Real-Time-Systems/Ada_Drivers_Library/boards/MicroBit/obj/zfp_lib_Debug/libada_drivers_library.a(nrf51-gpio-tasks_and_events.o)
 .data          0x0000000000000000        0x0 /home/nico/Downloads/Real-Time-Systems/Ada_Drivers_Library/boards/MicroBit/obj/zfp_lib_Debug/libada_drivers_library.a(nrf51-gpio-tasks_and_events.o)
 .bss           0x0000000000000000        0x0 /home/nico/Downloads/Real-Time-Systems/Ada_Drivers_Library/boards/MicroBit/obj/zfp_lib_Debug/libada_drivers_library.a(nrf51-gpio-tasks_and_events.o)
 .text.nrf51__gpio__tasks_and_events__enable_event
                0x0000000000000000      0x118 /home/nico/Downloads/Real-Time-Systems/Ada_Drivers_Library/boards/MicroBit/obj/zfp_lib_Debug/libada_drivers_library.a(nrf51-gpio-tasks_and_events.o)
 .text.nrf51__gpio__tasks_and_events__in_event
                0x0000000000000000       0x2c /home/nico/Downloads/Real-Time-Systems/Ada_Drivers_Library/boards/MicroBit/obj/zfp_lib_Debug/libada_drivers_library.a(nrf51-gpio-tasks_and_events.o)
 .text          0x0000000000000000        0x0 /home/nico/Downloads/Real-Time-Systems/Ada_Drivers_Library/boards/MicroBit/obj/zfp_lib_Debug/libada_drivers_library.a(nrf51-gpio.o)
 .data          0x0000000000000000        0x0 /home/nico/Downloads/Real-Time-Systems/Ada_Drivers_Library/boards/MicroBit/obj/zfp_lib_Debug/libada_drivers_library.a(nrf51-gpio.o)
 .bss           0x0000000000000000        0x0 /home/nico/Downloads/Real-Time-Systems/Ada_Drivers_Library/boards/MicroBit/obj/zfp_lib_Debug/libada_drivers_library.a(nrf51-gpio.o)
 .text.nrf51__gpio__gpio_pointIP
                0x0000000000000000       0x28 /home/nico/Downloads/Real-Time-Systems/Ada_Drivers_Library/boards/MicroBit/obj/zfp_lib_Debug/libada_drivers_library.a(nrf51-gpio.o)
 .rodata.nrf51__gpio__gpio_pointP
                0x0000000000000000        0x4 /home/nico/Downloads/Real-Time-Systems/Ada_Drivers_Library/boards/MicroBit/obj/zfp_lib_Debug/libada_drivers_library.a(nrf51-gpio.o)
 .rodata.nrf51__gpio__gpio_pointY
                0x0000000000000000        0x4 /home/nico/Downloads/Real-Time-Systems/Ada_Drivers_Library/boards/MicroBit/obj/zfp_lib_Debug/libada_drivers_library.a(nrf51-gpio.o)
 .rodata.nrf51__gpio__gpio_pointR15s
                0x0000000000000000        0x4 /home/nico/Downloads/Real-Time-Systems/Ada_Drivers_Library/boards/MicroBit/obj/zfp_lib_Debug/libada_drivers_library.a(nrf51-gpio.o)
 .text          0x0000000000000000        0x0 /home/nico/Downloads/Real-Time-Systems/Ada_Drivers_Library/boards/MicroBit/obj/zfp_lib_Debug/libada_drivers_library.a(nrf51-interrupts.o)
 .data          0x0000000000000000        0x0 /home/nico/Downloads/Real-Time-Systems/Ada_Drivers_Library/boards/MicroBit/obj/zfp_lib_Debug/libada_drivers_library.a(nrf51-interrupts.o)
 .bss           0x0000000000000000        0x0 /home/nico/Downloads/Real-Time-Systems/Ada_Drivers_Library/boards/MicroBit/obj/zfp_lib_Debug/libada_drivers_library.a(nrf51-interrupts.o)
 .text.nrf51__interrupts__set_priority
                0x0000000000000000       0x28 /home/nico/Downloads/Real-Time-Systems/Ada_Drivers_Library/boards/MicroBit/obj/zfp_lib_Debug/libada_drivers_library.a(nrf51-interrupts.o)
 .text.nrf51__interrupts__disable
                0x0000000000000000       0x1c /home/nico/Downloads/Real-Time-Systems/Ada_Drivers_Library/boards/MicroBit/obj/zfp_lib_Debug/libada_drivers_library.a(nrf51-interrupts.o)
 .text.nrf51__interrupts__pending
                0x0000000000000000       0x24 /home/nico/Downloads/Real-Time-Systems/Ada_Drivers_Library/boards/MicroBit/obj/zfp_lib_Debug/libada_drivers_library.a(nrf51-interrupts.o)
 .text          0x0000000000000000        0x0 /home/nico/Downloads/Real-Time-Systems/Ada_Drivers_Library/boards/MicroBit/obj/zfp_lib_Debug/libada_drivers_library.a(nrf51-ppi.o)
 .data          0x0000000000000000        0x0 /home/nico/Downloads/Real-Time-Systems/Ada_Drivers_Library/boards/MicroBit/obj/zfp_lib_Debug/libada_drivers_library.a(nrf51-ppi.o)
 .bss           0x0000000000000000        0x0 /home/nico/Downloads/Real-Time-Systems/Ada_Drivers_Library/boards/MicroBit/obj/zfp_lib_Debug/libada_drivers_library.a(nrf51-ppi.o)
 .text.nrf51__ppi__disable_channel
                0x0000000000000000       0x70 /home/nico/Downloads/Real-Time-Systems/Ada_Drivers_Library/boards/MicroBit/obj/zfp_lib_Debug/libada_drivers_library.a(nrf51-ppi.o)
 .text.nrf51__ppi__add_to_group
                0x0000000000000000       0x94 /home/nico/Downloads/Real-Time-Systems/Ada_Drivers_Library/boards/MicroBit/obj/zfp_lib_Debug/libada_drivers_library.a(nrf51-ppi.o)
 .text.nrf51__ppi__remove_from_group
                0x0000000000000000       0x98 /home/nico/Downloads/Real-Time-Systems/Ada_Drivers_Library/boards/MicroBit/obj/zfp_lib_Debug/libada_drivers_library.a(nrf51-ppi.o)
 .text.nrf51__ppi__enable_group
                0x0000000000000000       0x30 /home/nico/Downloads/Real-Time-Systems/Ada_Drivers_Library/boards/MicroBit/obj/zfp_lib_Debug/libada_drivers_library.a(nrf51-ppi.o)
 .text.nrf51__ppi__disable_group
                0x0000000000000000       0x34 /home/nico/Downloads/Real-Time-Systems/Ada_Drivers_Library/boards/MicroBit/obj/zfp_lib_Debug/libada_drivers_library.a(nrf51-ppi.o)
 .text          0x0000000000000000        0x0 /home/nico/Downloads/Real-Time-Systems/Ada_Drivers_Library/boards/MicroBit/obj/zfp_lib_Debug/libada_drivers_library.a(nrf51-rtc.o)
 .data          0x0000000000000000        0x0 /home/nico/Downloads/Real-Time-Systems/Ada_Drivers_Library/boards/MicroBit/obj/zfp_lib_Debug/libada_drivers_library.a(nrf51-rtc.o)
 .bss           0x0000000000000000        0x0 /home/nico/Downloads/Real-Time-Systems/Ada_Drivers_Library/boards/MicroBit/obj/zfp_lib_Debug/libada_drivers_library.a(nrf51-rtc.o)
 .text.nrf51__rtc__counter
                0x0000000000000000       0x24 /home/nico/Downloads/Real-Time-Systems/Ada_Drivers_Library/boards/MicroBit/obj/zfp_lib_Debug/libada_drivers_library.a(nrf51-rtc.o)
 .text.nrf51__rtc__event
                0x0000000000000000       0x78 /home/nico/Downloads/Real-Time-Systems/Ada_Drivers_Library/boards/MicroBit/obj/zfp_lib_Debug/libada_drivers_library.a(nrf51-rtc.o)
 .rodata.nrf51__rtc__event
                0x0000000000000000       0x14 /home/nico/Downloads/Real-Time-Systems/Ada_Drivers_Library/boards/MicroBit/obj/zfp_lib_Debug/libada_drivers_library.a(nrf51-rtc.o)
 .text.nrf51__rtc__disable_event
                0x0000000000000000      0x220 /home/nico/Downloads/Real-Time-Systems/Ada_Drivers_Library/boards/MicroBit/obj/zfp_lib_Debug/libada_drivers_library.a(nrf51-rtc.o)
 .rodata.nrf51__rtc__disable_event
                0x0000000000000000       0x14 /home/nico/Downloads/Real-Time-Systems/Ada_Drivers_Library/boards/MicroBit/obj/zfp_lib_Debug/libada_drivers_library.a(nrf51-rtc.o)
 .text          0x0000000000000000        0x0 /home/nico/Downloads/Real-Time-Systems/Ada_Drivers_Library/boards/MicroBit/obj/zfp_lib_Debug/libada_drivers_library.a(nrf51-spi_master.o)
 .data          0x0000000000000000        0x0 /home/nico/Downloads/Real-Time-Systems/Ada_Drivers_Library/boards/MicroBit/obj/zfp_lib_Debug/libada_drivers_library.a(nrf51-spi_master.o)
 .bss           0x0000000000000000        0x0 /home/nico/Downloads/Real-Time-Systems/Ada_Drivers_Library/boards/MicroBit/obj/zfp_lib_Debug/libada_drivers_library.a(nrf51-spi_master.o)
 .rodata.nrf51__spi_master__spi_masterP
                0x0000000000000000        0x4 /home/nico/Downloads/Real-Time-Systems/Ada_Drivers_Library/boards/MicroBit/obj/zfp_lib_Debug/libada_drivers_library.a(nrf51-spi_master.o)
 .rodata.nrf51__spi_master__spi_masterY
                0x0000000000000000        0x4 /home/nico/Downloads/Real-Time-Systems/Ada_Drivers_Library/boards/MicroBit/obj/zfp_lib_Debug/libada_drivers_library.a(nrf51-spi_master.o)
 .rodata.nrf51__spi_master__spi_masterR28s
                0x0000000000000000        0x4 /home/nico/Downloads/Real-Time-Systems/Ada_Drivers_Library/boards/MicroBit/obj/zfp_lib_Debug/libada_drivers_library.a(nrf51-spi_master.o)
 .text          0x0000000000000000        0x0 /home/nico/Downloads/Real-Time-Systems/Ada_Drivers_Library/boards/MicroBit/obj/zfp_lib_Debug/libada_drivers_library.a(nrf51-tasks.o)
 .data          0x0000000000000000        0x0 /home/nico/Downloads/Real-Time-Systems/Ada_Drivers_Library/boards/MicroBit/obj/zfp_lib_Debug/libada_drivers_library.a(nrf51-tasks.o)
 .bss           0x0000000000000000        0x0 /home/nico/Downloads/Real-Time-Systems/Ada_Drivers_Library/boards/MicroBit/obj/zfp_lib_Debug/libada_drivers_library.a(nrf51-tasks.o)
 .text.nrf51__tasks__get_address
                0x0000000000000000       0x14 /home/nico/Downloads/Real-Time-Systems/Ada_Drivers_Library/boards/MicroBit/obj/zfp_lib_Debug/libada_drivers_library.a(nrf51-tasks.o)
 .rodata.nrf51__tasks__power_constlat
                0x0000000000000000        0x4 /home/nico/Downloads/Real-Time-Systems/Ada_Drivers_Library/boards/MicroBit/obj/zfp_lib_Debug/libada_drivers_library.a(nrf51-tasks.o)
 .rodata.nrf51__tasks__power_lowpwr
                0x0000000000000000        0x4 /home/nico/Downloads/Real-Time-Systems/Ada_Drivers_Library/boards/MicroBit/obj/zfp_lib_Debug/libada_drivers_library.a(nrf51-tasks.o)
 .rodata.nrf51__tasks__clock_hfclkstart
                0x0000000000000000        0x4 /home/nico/Downloads/Real-Time-Systems/Ada_Drivers_Library/boards/MicroBit/obj/zfp_lib_Debug/libada_drivers_library.a(nrf51-tasks.o)
 .rodata.nrf51__tasks__clock_hfclkstop
                0x0000000000000000        0x4 /home/nico/Downloads/Real-Time-Systems/Ada_Drivers_Library/boards/MicroBit/obj/zfp_lib_Debug/libada_drivers_library.a(nrf51-tasks.o)
 .rodata.nrf51__tasks__clock_lfclkstart
                0x0000000000000000        0x4 /home/nico/Downloads/Real-Time-Systems/Ada_Drivers_Library/boards/MicroBit/obj/zfp_lib_Debug/libada_drivers_library.a(nrf51-tasks.o)
 .rodata.nrf51__tasks__clock_lfclkstop
                0x0000000000000000        0x4 /home/nico/Downloads/Real-Time-Systems/Ada_Drivers_Library/boards/MicroBit/obj/zfp_lib_Debug/libada_drivers_library.a(nrf51-tasks.o)
 .rodata.nrf51__tasks__clock_cal
                0x0000000000000000        0x4 /home/nico/Downloads/Real-Time-Systems/Ada_Drivers_Library/boards/MicroBit/obj/zfp_lib_Debug/libada_drivers_library.a(nrf51-tasks.o)
 .rodata.nrf51__tasks__clock_ctstart
                0x0000000000000000        0x4 /home/nico/Downloads/Real-Time-Systems/Ada_Drivers_Library/boards/MicroBit/obj/zfp_lib_Debug/libada_drivers_library.a(nrf51-tasks.o)
 .rodata.nrf51__tasks__clock_ctstop
                0x0000000000000000        0x4 /home/nico/Downloads/Real-Time-Systems/Ada_Drivers_Library/boards/MicroBit/obj/zfp_lib_Debug/libada_drivers_library.a(nrf51-tasks.o)
 .rodata.nrf51__tasks__gpiote_out_0
                0x0000000000000000        0x4 /home/nico/Downloads/Real-Time-Systems/Ada_Drivers_Library/boards/MicroBit/obj/zfp_lib_Debug/libada_drivers_library.a(nrf51-tasks.o)
 .rodata.nrf51__tasks__gpiote_out_1
                0x0000000000000000        0x4 /home/nico/Downloads/Real-Time-Systems/Ada_Drivers_Library/boards/MicroBit/obj/zfp_lib_Debug/libada_drivers_library.a(nrf51-tasks.o)
 .rodata.nrf51__tasks__gpiote_out_2
                0x0000000000000000        0x4 /home/nico/Downloads/Real-Time-Systems/Ada_Drivers_Library/boards/MicroBit/obj/zfp_lib_Debug/libada_drivers_library.a(nrf51-tasks.o)
 .rodata.nrf51__tasks__gpiote_out_3
                0x0000000000000000        0x4 /home/nico/Downloads/Real-Time-Systems/Ada_Drivers_Library/boards/MicroBit/obj/zfp_lib_Debug/libada_drivers_library.a(nrf51-tasks.o)
 .rodata.nrf51__tasks__ppi_chg_0_en
                0x0000000000000000        0x4 /home/nico/Downloads/Real-Time-Systems/Ada_Drivers_Library/boards/MicroBit/obj/zfp_lib_Debug/libada_drivers_library.a(nrf51-tasks.o)
 .rodata.nrf51__tasks__ppi_chg_0_dis
                0x0000000000000000        0x4 /home/nico/Downloads/Real-Time-Systems/Ada_Drivers_Library/boards/MicroBit/obj/zfp_lib_Debug/libada_drivers_library.a(nrf51-tasks.o)
 .rodata.nrf51__tasks__ppi_chg_1_en
                0x0000000000000000        0x4 /home/nico/Downloads/Real-Time-Systems/Ada_Drivers_Library/boards/MicroBit/obj/zfp_lib_Debug/libada_drivers_library.a(nrf51-tasks.o)
 .rodata.nrf51__tasks__ppi_chg_1_dis
                0x0000000000000000        0x4 /home/nico/Downloads/Real-Time-Systems/Ada_Drivers_Library/boards/MicroBit/obj/zfp_lib_Debug/libada_drivers_library.a(nrf51-tasks.o)
 .rodata.nrf51__tasks__ppi_chg_2_en
                0x0000000000000000        0x4 /home/nico/Downloads/Real-Time-Systems/Ada_Drivers_Library/boards/MicroBit/obj/zfp_lib_Debug/libada_drivers_library.a(nrf51-tasks.o)
 .rodata.nrf51__tasks__ppi_chg_2_dis
                0x0000000000000000        0x4 /home/nico/Downloads/Real-Time-Systems/Ada_Drivers_Library/boards/MicroBit/obj/zfp_lib_Debug/libada_drivers_library.a(nrf51-tasks.o)
 .rodata.nrf51__tasks__ppi_chg_3_en
                0x0000000000000000        0x4 /home/nico/Downloads/Real-Time-Systems/Ada_Drivers_Library/boards/MicroBit/obj/zfp_lib_Debug/libada_drivers_library.a(nrf51-tasks.o)
 .rodata.nrf51__tasks__ppi_chg_3_dis
                0x0000000000000000        0x4 /home/nico/Downloads/Real-Time-Systems/Ada_Drivers_Library/boards/MicroBit/obj/zfp_lib_Debug/libada_drivers_library.a(nrf51-tasks.o)
 .rodata.nrf51__tasks__radio_txen
                0x0000000000000000        0x4 /home/nico/Downloads/Real-Time-Systems/Ada_Drivers_Library/boards/MicroBit/obj/zfp_lib_Debug/libada_drivers_library.a(nrf51-tasks.o)
 .rodata.nrf51__tasks__radio_rxen
                0x0000000000000000        0x4 /home/nico/Downloads/Real-Time-Systems/Ada_Drivers_Library/boards/MicroBit/obj/zfp_lib_Debug/libada_drivers_library.a(nrf51-tasks.o)
 .rodata.nrf51__tasks__radio_start
                0x0000000000000000        0x4 /home/nico/Downloads/Real-Time-Systems/Ada_Drivers_Library/boards/MicroBit/obj/zfp_lib_Debug/libada_drivers_library.a(nrf51-tasks.o)
 .rodata.nrf51__tasks__radio_stop
                0x0000000000000000        0x4 /home/nico/Downloads/Real-Time-Systems/Ada_Drivers_Library/boards/MicroBit/obj/zfp_lib_Debug/libada_drivers_library.a(nrf51-tasks.o)
 .rodata.nrf51__tasks__radio_disable
                0x0000000000000000        0x4 /home/nico/Downloads/Real-Time-Systems/Ada_Drivers_Library/boards/MicroBit/obj/zfp_lib_Debug/libada_drivers_library.a(nrf51-tasks.o)
 .rodata.nrf51__tasks__radio_rssistart
                0x0000000000000000        0x4 /home/nico/Downloads/Real-Time-Systems/Ada_Drivers_Library/boards/MicroBit/obj/zfp_lib_Debug/libada_drivers_library.a(nrf51-tasks.o)
 .rodata.nrf51__tasks__radio_rssistop
                0x0000000000000000        0x4 /home/nico/Downloads/Real-Time-Systems/Ada_Drivers_Library/boards/MicroBit/obj/zfp_lib_Debug/libada_drivers_library.a(nrf51-tasks.o)
 .rodata.nrf51__tasks__radio_bcstart
                0x0000000000000000        0x4 /home/nico/Downloads/Real-Time-Systems/Ada_Drivers_Library/boards/MicroBit/obj/zfp_lib_Debug/libada_drivers_library.a(nrf51-tasks.o)
 .rodata.nrf51__tasks__radio_bcstop
                0x0000000000000000        0x4 /home/nico/Downloads/Real-Time-Systems/Ada_Drivers_Library/boards/MicroBit/obj/zfp_lib_Debug/libada_drivers_library.a(nrf51-tasks.o)
 .rodata.nrf51__tasks__timer_0_start
                0x0000000000000000        0x4 /home/nico/Downloads/Real-Time-Systems/Ada_Drivers_Library/boards/MicroBit/obj/zfp_lib_Debug/libada_drivers_library.a(nrf51-tasks.o)
 .rodata.nrf51__tasks__timer_0_stop
                0x0000000000000000        0x4 /home/nico/Downloads/Real-Time-Systems/Ada_Drivers_Library/boards/MicroBit/obj/zfp_lib_Debug/libada_drivers_library.a(nrf51-tasks.o)
 .rodata.nrf51__tasks__timer_0_count
                0x0000000000000000        0x4 /home/nico/Downloads/Real-Time-Systems/Ada_Drivers_Library/boards/MicroBit/obj/zfp_lib_Debug/libada_drivers_library.a(nrf51-tasks.o)
 .rodata.nrf51__tasks__timer_0_clear
                0x0000000000000000        0x4 /home/nico/Downloads/Real-Time-Systems/Ada_Drivers_Library/boards/MicroBit/obj/zfp_lib_Debug/libada_drivers_library.a(nrf51-tasks.o)
 .rodata.nrf51__tasks__timer_0_capture_0
                0x0000000000000000        0x4 /home/nico/Downloads/Real-Time-Systems/Ada_Drivers_Library/boards/MicroBit/obj/zfp_lib_Debug/libada_drivers_library.a(nrf51-tasks.o)
 .rodata.nrf51__tasks__timer_0_capture_1
                0x0000000000000000        0x4 /home/nico/Downloads/Real-Time-Systems/Ada_Drivers_Library/boards/MicroBit/obj/zfp_lib_Debug/libada_drivers_library.a(nrf51-tasks.o)
 .rodata.nrf51__tasks__timer_0_capture_2
                0x0000000000000000        0x4 /home/nico/Downloads/Real-Time-Systems/Ada_Drivers_Library/boards/MicroBit/obj/zfp_lib_Debug/libada_drivers_library.a(nrf51-tasks.o)
 .rodata.nrf51__tasks__timer_0_capture_3
                0x0000000000000000        0x4 /home/nico/Downloads/Real-Time-Systems/Ada_Drivers_Library/boards/MicroBit/obj/zfp_lib_Debug/libada_drivers_library.a(nrf51-tasks.o)
 .rodata.nrf51__tasks__timer_1_start
                0x0000000000000000        0x4 /home/nico/Downloads/Real-Time-Systems/Ada_Drivers_Library/boards/MicroBit/obj/zfp_lib_Debug/libada_drivers_library.a(nrf51-tasks.o)
 .rodata.nrf51__tasks__timer_1_stop
                0x0000000000000000        0x4 /home/nico/Downloads/Real-Time-Systems/Ada_Drivers_Library/boards/MicroBit/obj/zfp_lib_Debug/libada_drivers_library.a(nrf51-tasks.o)
 .rodata.nrf51__tasks__timer_1_count
                0x0000000000000000        0x4 /home/nico/Downloads/Real-Time-Systems/Ada_Drivers_Library/boards/MicroBit/obj/zfp_lib_Debug/libada_drivers_library.a(nrf51-tasks.o)
 .rodata.nrf51__tasks__timer_1_clear
                0x0000000000000000        0x4 /home/nico/Downloads/Real-Time-Systems/Ada_Drivers_Library/boards/MicroBit/obj/zfp_lib_Debug/libada_drivers_library.a(nrf51-tasks.o)
 .rodata.nrf51__tasks__timer_1_capture_0
                0x0000000000000000        0x4 /home/nico/Downloads/Real-Time-Systems/Ada_Drivers_Library/boards/MicroBit/obj/zfp_lib_Debug/libada_drivers_library.a(nrf51-tasks.o)
 .rodata.nrf51__tasks__timer_1_capture_1
                0x0000000000000000        0x4 /home/nico/Downloads/Real-Time-Systems/Ada_Drivers_Library/boards/MicroBit/obj/zfp_lib_Debug/libada_drivers_library.a(nrf51-tasks.o)
 .rodata.nrf51__tasks__timer_1_capture_2
                0x0000000000000000        0x4 /home/nico/Downloads/Real-Time-Systems/Ada_Drivers_Library/boards/MicroBit/obj/zfp_lib_Debug/libada_drivers_library.a(nrf51-tasks.o)
 .rodata.nrf51__tasks__timer_1_capture_3
                0x0000000000000000        0x4 /home/nico/Downloads/Real-Time-Systems/Ada_Drivers_Library/boards/MicroBit/obj/zfp_lib_Debug/libada_drivers_library.a(nrf51-tasks.o)
 .rodata.nrf51__tasks__timer_2_start
                0x0000000000000000        0x4 /home/nico/Downloads/Real-Time-Systems/Ada_Drivers_Library/boards/MicroBit/obj/zfp_lib_Debug/libada_drivers_library.a(nrf51-tasks.o)
 .rodata.nrf51__tasks__timer_2_stop
                0x0000000000000000        0x4 /home/nico/Downloads/Real-Time-Systems/Ada_Drivers_Library/boards/MicroBit/obj/zfp_lib_Debug/libada_drivers_library.a(nrf51-tasks.o)
 .rodata.nrf51__tasks__timer_2_count
                0x0000000000000000        0x4 /home/nico/Downloads/Real-Time-Systems/Ada_Drivers_Library/boards/MicroBit/obj/zfp_lib_Debug/libada_drivers_library.a(nrf51-tasks.o)
 .rodata.nrf51__tasks__timer_2_clear
                0x0000000000000000        0x4 /home/nico/Downloads/Real-Time-Systems/Ada_Drivers_Library/boards/MicroBit/obj/zfp_lib_Debug/libada_drivers_library.a(nrf51-tasks.o)
 .rodata.nrf51__tasks__timer_2_capture_0
                0x0000000000000000        0x4 /home/nico/Downloads/Real-Time-Systems/Ada_Drivers_Library/boards/MicroBit/obj/zfp_lib_Debug/libada_drivers_library.a(nrf51-tasks.o)
 .rodata.nrf51__tasks__timer_2_capture_1
                0x0000000000000000        0x4 /home/nico/Downloads/Real-Time-Systems/Ada_Drivers_Library/boards/MicroBit/obj/zfp_lib_Debug/libada_drivers_library.a(nrf51-tasks.o)
 .rodata.nrf51__tasks__timer_2_capture_2
                0x0000000000000000        0x4 /home/nico/Downloads/Real-Time-Systems/Ada_Drivers_Library/boards/MicroBit/obj/zfp_lib_Debug/libada_drivers_library.a(nrf51-tasks.o)
 .rodata.nrf51__tasks__timer_2_capture_3
                0x0000000000000000        0x4 /home/nico/Downloads/Real-Time-Systems/Ada_Drivers_Library/boards/MicroBit/obj/zfp_lib_Debug/libada_drivers_library.a(nrf51-tasks.o)
 .rodata.nrf51__tasks__rtc_0_start
                0x0000000000000000        0x4 /home/nico/Downloads/Real-Time-Systems/Ada_Drivers_Library/boards/MicroBit/obj/zfp_lib_Debug/libada_drivers_library.a(nrf51-tasks.o)
 .rodata.nrf51__tasks__rtc_0_stop
                0x0000000000000000        0x4 /home/nico/Downloads/Real-Time-Systems/Ada_Drivers_Library/boards/MicroBit/obj/zfp_lib_Debug/libada_drivers_library.a(nrf51-tasks.o)
 .rodata.nrf51__tasks__rtc_0_clear
                0x0000000000000000        0x4 /home/nico/Downloads/Real-Time-Systems/Ada_Drivers_Library/boards/MicroBit/obj/zfp_lib_Debug/libada_drivers_library.a(nrf51-tasks.o)
 .rodata.nrf51__tasks__rtc_0_trigovrflw
                0x0000000000000000        0x4 /home/nico/Downloads/Real-Time-Systems/Ada_Drivers_Library/boards/MicroBit/obj/zfp_lib_Debug/libada_drivers_library.a(nrf51-tasks.o)
 .rodata.nrf51__tasks__rtc_1_start
                0x0000000000000000        0x4 /home/nico/Downloads/Real-Time-Systems/Ada_Drivers_Library/boards/MicroBit/obj/zfp_lib_Debug/libada_drivers_library.a(nrf51-tasks.o)
 .rodata.nrf51__tasks__rtc_1_stop
                0x0000000000000000        0x4 /home/nico/Downloads/Real-Time-Systems/Ada_Drivers_Library/boards/MicroBit/obj/zfp_lib_Debug/libada_drivers_library.a(nrf51-tasks.o)
 .rodata.nrf51__tasks__rtc_1_clear
                0x0000000000000000        0x4 /home/nico/Downloads/Real-Time-Systems/Ada_Drivers_Library/boards/MicroBit/obj/zfp_lib_Debug/libada_drivers_library.a(nrf51-tasks.o)
 .rodata.nrf51__tasks__rtc_1_trigovrflw
                0x0000000000000000        0x4 /home/nico/Downloads/Real-Time-Systems/Ada_Drivers_Library/boards/MicroBit/obj/zfp_lib_Debug/libada_drivers_library.a(nrf51-tasks.o)
 .rodata.nrf51__tasks__watchdog_start
                0x0000000000000000        0x4 /home/nico/Downloads/Real-Time-Systems/Ada_Drivers_Library/boards/MicroBit/obj/zfp_lib_Debug/libada_drivers_library.a(nrf51-tasks.o)
 .rodata.nrf51__tasks__rng_start
                0x0000000000000000        0x4 /home/nico/Downloads/Real-Time-Systems/Ada_Drivers_Library/boards/MicroBit/obj/zfp_lib_Debug/libada_drivers_library.a(nrf51-tasks.o)
 .rodata.nrf51__tasks__rng_stop
                0x0000000000000000        0x4 /home/nico/Downloads/Real-Time-Systems/Ada_Drivers_Library/boards/MicroBit/obj/zfp_lib_Debug/libada_drivers_library.a(nrf51-tasks.o)
 .rodata.nrf51__tasks__temperature_start
                0x0000000000000000        0x4 /home/nico/Downloads/Real-Time-Systems/Ada_Drivers_Library/boards/MicroBit/obj/zfp_lib_Debug/libada_drivers_library.a(nrf51-tasks.o)
 .rodata.nrf51__tasks__temperature_stop
                0x0000000000000000        0x4 /home/nico/Downloads/Real-Time-Systems/Ada_Drivers_Library/boards/MicroBit/obj/zfp_lib_Debug/libada_drivers_library.a(nrf51-tasks.o)
 .rodata.nrf51__tasks__ecb_start
                0x0000000000000000        0x4 /home/nico/Downloads/Real-Time-Systems/Ada_Drivers_Library/boards/MicroBit/obj/zfp_lib_Debug/libada_drivers_library.a(nrf51-tasks.o)
 .rodata.nrf51__tasks__ecb_stop
                0x0000000000000000        0x4 /home/nico/Downloads/Real-Time-Systems/Ada_Drivers_Library/boards/MicroBit/obj/zfp_lib_Debug/libada_drivers_library.a(nrf51-tasks.o)
 .rodata.nrf51__tasks__ccm_ksgen
                0x0000000000000000        0x4 /home/nico/Downloads/Real-Time-Systems/Ada_Drivers_Library/boards/MicroBit/obj/zfp_lib_Debug/libada_drivers_library.a(nrf51-tasks.o)
 .rodata.nrf51__tasks__ccm_crypt
                0x0000000000000000        0x4 /home/nico/Downloads/Real-Time-Systems/Ada_Drivers_Library/boards/MicroBit/obj/zfp_lib_Debug/libada_drivers_library.a(nrf51-tasks.o)
 .rodata.nrf51__tasks__ccm_stop
                0x0000000000000000        0x4 /home/nico/Downloads/Real-Time-Systems/Ada_Drivers_Library/boards/MicroBit/obj/zfp_lib_Debug/libada_drivers_library.a(nrf51-tasks.o)
 .rodata.nrf51__tasks__aar_start
                0x0000000000000000        0x4 /home/nico/Downloads/Real-Time-Systems/Ada_Drivers_Library/boards/MicroBit/obj/zfp_lib_Debug/libada_drivers_library.a(nrf51-tasks.o)
 .rodata.nrf51__tasks__aar_stop
                0x0000000000000000        0x4 /home/nico/Downloads/Real-Time-Systems/Ada_Drivers_Library/boards/MicroBit/obj/zfp_lib_Debug/libada_drivers_library.a(nrf51-tasks.o)
 .rodata.nrf51__tasks__twi_0_startrx
                0x0000000000000000        0x4 /home/nico/Downloads/Real-Time-Systems/Ada_Drivers_Library/boards/MicroBit/obj/zfp_lib_Debug/libada_drivers_library.a(nrf51-tasks.o)
 .rodata.nrf51__tasks__twi_0_starttx
                0x0000000000000000        0x4 /home/nico/Downloads/Real-Time-Systems/Ada_Drivers_Library/boards/MicroBit/obj/zfp_lib_Debug/libada_drivers_library.a(nrf51-tasks.o)
 .rodata.nrf51__tasks__twi_0_stop
                0x0000000000000000        0x4 /home/nico/Downloads/Real-Time-Systems/Ada_Drivers_Library/boards/MicroBit/obj/zfp_lib_Debug/libada_drivers_library.a(nrf51-tasks.o)
 .rodata.nrf51__tasks__twi_0_suspend
                0x0000000000000000        0x4 /home/nico/Downloads/Real-Time-Systems/Ada_Drivers_Library/boards/MicroBit/obj/zfp_lib_Debug/libada_drivers_library.a(nrf51-tasks.o)
 .rodata.nrf51__tasks__twi_0_resume
                0x0000000000000000        0x4 /home/nico/Downloads/Real-Time-Systems/Ada_Drivers_Library/boards/MicroBit/obj/zfp_lib_Debug/libada_drivers_library.a(nrf51-tasks.o)
 .rodata.nrf51__tasks__twi_1_startrx
                0x0000000000000000        0x4 /home/nico/Downloads/Real-Time-Systems/Ada_Drivers_Library/boards/MicroBit/obj/zfp_lib_Debug/libada_drivers_library.a(nrf51-tasks.o)
 .rodata.nrf51__tasks__twi_1_starttx
                0x0000000000000000        0x4 /home/nico/Downloads/Real-Time-Systems/Ada_Drivers_Library/boards/MicroBit/obj/zfp_lib_Debug/libada_drivers_library.a(nrf51-tasks.o)
 .rodata.nrf51__tasks__twi_1_stop
                0x0000000000000000        0x4 /home/nico/Downloads/Real-Time-Systems/Ada_Drivers_Library/boards/MicroBit/obj/zfp_lib_Debug/libada_drivers_library.a(nrf51-tasks.o)
 .rodata.nrf51__tasks__twi_1_suspend
                0x0000000000000000        0x4 /home/nico/Downloads/Real-Time-Systems/Ada_Drivers_Library/boards/MicroBit/obj/zfp_lib_Debug/libada_drivers_library.a(nrf51-tasks.o)
 .rodata.nrf51__tasks__twi_1_resume
                0x0000000000000000        0x4 /home/nico/Downloads/Real-Time-Systems/Ada_Drivers_Library/boards/MicroBit/obj/zfp_lib_Debug/libada_drivers_library.a(nrf51-tasks.o)
 .rodata.nrf51__tasks__uart_startrx
                0x0000000000000000        0x4 /home/nico/Downloads/Real-Time-Systems/Ada_Drivers_Library/boards/MicroBit/obj/zfp_lib_Debug/libada_drivers_library.a(nrf51-tasks.o)
 .rodata.nrf51__tasks__uart_stoprx
                0x0000000000000000        0x4 /home/nico/Downloads/Real-Time-Systems/Ada_Drivers_Library/boards/MicroBit/obj/zfp_lib_Debug/libada_drivers_library.a(nrf51-tasks.o)
 .rodata.nrf51__tasks__uart_starttx
                0x0000000000000000        0x4 /home/nico/Downloads/Real-Time-Systems/Ada_Drivers_Library/boards/MicroBit/obj/zfp_lib_Debug/libada_drivers_library.a(nrf51-tasks.o)
 .rodata.nrf51__tasks__uart_stoptx
                0x0000000000000000        0x4 /home/nico/Downloads/Real-Time-Systems/Ada_Drivers_Library/boards/MicroBit/obj/zfp_lib_Debug/libada_drivers_library.a(nrf51-tasks.o)
 .rodata.nrf51__tasks__qdec_start
                0x0000000000000000        0x4 /home/nico/Downloads/Real-Time-Systems/Ada_Drivers_Library/boards/MicroBit/obj/zfp_lib_Debug/libada_drivers_library.a(nrf51-tasks.o)
 .rodata.nrf51__tasks__qdec_stop
                0x0000000000000000        0x4 /home/nico/Downloads/Real-Time-Systems/Ada_Drivers_Library/boards/MicroBit/obj/zfp_lib_Debug/libada_drivers_library.a(nrf51-tasks.o)
 .rodata.nrf51__tasks__qdec_readclracc
                0x0000000000000000        0x4 /home/nico/Downloads/Real-Time-Systems/Ada_Drivers_Library/boards/MicroBit/obj/zfp_lib_Debug/libada_drivers_library.a(nrf51-tasks.o)
 .rodata.nrf51__tasks__adc_start
                0x0000000000000000        0x4 /home/nico/Downloads/Real-Time-Systems/Ada_Drivers_Library/boards/MicroBit/obj/zfp_lib_Debug/libada_drivers_library.a(nrf51-tasks.o)
 .rodata.nrf51__tasks__adc_stop
                0x0000000000000000        0x4 /home/nico/Downloads/Real-Time-Systems/Ada_Drivers_Library/boards/MicroBit/obj/zfp_lib_Debug/libada_drivers_library.a(nrf51-tasks.o)
 .text          0x0000000000000000        0x0 /home/nico/Downloads/Real-Time-Systems/Ada_Drivers_Library/boards/MicroBit/obj/zfp_lib_Debug/libada_drivers_library.a(nrf51-timers.o)
 .data          0x0000000000000000        0x0 /home/nico/Downloads/Real-Time-Systems/Ada_Drivers_Library/boards/MicroBit/obj/zfp_lib_Debug/libada_drivers_library.a(nrf51-timers.o)
 .bss           0x0000000000000000        0x0 /home/nico/Downloads/Real-Time-Systems/Ada_Drivers_Library/boards/MicroBit/obj/zfp_lib_Debug/libada_drivers_library.a(nrf51-timers.o)
 .rodata.nrf51__timers__timerP
                0x0000000000000000        0x4 /home/nico/Downloads/Real-Time-Systems/Ada_Drivers_Library/boards/MicroBit/obj/zfp_lib_Debug/libada_drivers_library.a(nrf51-timers.o)
 .rodata.nrf51__timers__timerY
                0x0000000000000000        0x4 /home/nico/Downloads/Real-Time-Systems/Ada_Drivers_Library/boards/MicroBit/obj/zfp_lib_Debug/libada_drivers_library.a(nrf51-timers.o)
 .rodata.nrf51__timers__timerR21s
                0x0000000000000000        0x4 /home/nico/Downloads/Real-Time-Systems/Ada_Drivers_Library/boards/MicroBit/obj/zfp_lib_Debug/libada_drivers_library.a(nrf51-timers.o)
 .text          0x0000000000000000        0x0 /home/nico/Downloads/Real-Time-Systems/Ada_Drivers_Library/boards/MicroBit/obj/zfp_lib_Debug/libada_drivers_library.a(nrf51-twi.o)
 .data          0x0000000000000000        0x0 /home/nico/Downloads/Real-Time-Systems/Ada_Drivers_Library/boards/MicroBit/obj/zfp_lib_Debug/libada_drivers_library.a(nrf51-twi.o)
 .bss           0x0000000000000000        0x0 /home/nico/Downloads/Real-Time-Systems/Ada_Drivers_Library/boards/MicroBit/obj/zfp_lib_Debug/libada_drivers_library.a(nrf51-twi.o)
 .rodata.nrf51__twi__twi_masterP
                0x0000000000000000        0x4 /home/nico/Downloads/Real-Time-Systems/Ada_Drivers_Library/boards/MicroBit/obj/zfp_lib_Debug/libada_drivers_library.a(nrf51-twi.o)
 .rodata.nrf51__twi__twi_masterY
                0x0000000000000000        0x4 /home/nico/Downloads/Real-Time-Systems/Ada_Drivers_Library/boards/MicroBit/obj/zfp_lib_Debug/libada_drivers_library.a(nrf51-twi.o)
 .rodata.nrf51__twi__twi_masterR24s
                0x0000000000000000        0x4 /home/nico/Downloads/Real-Time-Systems/Ada_Drivers_Library/boards/MicroBit/obj/zfp_lib_Debug/libada_drivers_library.a(nrf51-twi.o)
 .text          0x0000000000000000        0x0 /home/nico/Downloads/Real-Time-Systems/Ada_Drivers_Library/boards/MicroBit/obj/zfp_lib_Debug/libada_drivers_library.a(nrf51-uart.o)
 .data          0x0000000000000000        0x0 /home/nico/Downloads/Real-Time-Systems/Ada_Drivers_Library/boards/MicroBit/obj/zfp_lib_Debug/libada_drivers_library.a(nrf51-uart.o)
 .bss           0x0000000000000000        0x0 /home/nico/Downloads/Real-Time-Systems/Ada_Drivers_Library/boards/MicroBit/obj/zfp_lib_Debug/libada_drivers_library.a(nrf51-uart.o)
 .text.nrf51__uart__baud_rateRP
                0x0000000000000000      0x118 /home/nico/Downloads/Real-Time-Systems/Ada_Drivers_Library/boards/MicroBit/obj/zfp_lib_Debug/libada_drivers_library.a(nrf51-uart.o)
 .rodata.nrf51__uart__uart_deviceP
                0x0000000000000000        0x4 /home/nico/Downloads/Real-Time-Systems/Ada_Drivers_Library/boards/MicroBit/obj/zfp_lib_Debug/libada_drivers_library.a(nrf51-uart.o)
 .rodata.nrf51__uart__uart_deviceY
                0x0000000000000000        0x4 /home/nico/Downloads/Real-Time-Systems/Ada_Drivers_Library/boards/MicroBit/obj/zfp_lib_Debug/libada_drivers_library.a(nrf51-uart.o)
 .rodata.nrf51__uart__baud_rateA
                0x0000000000000000       0x40 /home/nico/Downloads/Real-Time-Systems/Ada_Drivers_Library/boards/MicroBit/obj/zfp_lib_Debug/libada_drivers_library.a(nrf51-uart.o)
 .rodata.nrf51__uart__uart_deviceR46s
                0x0000000000000000        0x4 /home/nico/Downloads/Real-Time-Systems/Ada_Drivers_Library/boards/MicroBit/obj/zfp_lib_Debug/libada_drivers_library.a(nrf51-uart.o)
 .text          0x0000000000000000        0x0 /home/nico/Downloads/Real-Time-Systems/Ada_Drivers_Library/boards/MicroBit/obj/zfp_lib_Debug/libada_drivers_library.a(nrf51_svd-gpio.o)
 .data          0x0000000000000000        0x0 /home/nico/Downloads/Real-Time-Systems/Ada_Drivers_Library/boards/MicroBit/obj/zfp_lib_Debug/libada_drivers_library.a(nrf51_svd-gpio.o)
 .bss           0x0000000000000000        0x0 /home/nico/Downloads/Real-Time-Systems/Ada_Drivers_Library/boards/MicroBit/obj/zfp_lib_Debug/libada_drivers_library.a(nrf51_svd-gpio.o)
 .text.nrf51_svd__gpio__pin_cnf_sense_fieldRP
                0x0000000000000000       0x3c /home/nico/Downloads/Real-Time-Systems/Ada_Drivers_Library/boards/MicroBit/obj/zfp_lib_Debug/libada_drivers_library.a(nrf51_svd-gpio.o)
 .text.nrf51_svd__gpio__Tout_pin_field_arrayBIP
                0x0000000000000000       0x10 /home/nico/Downloads/Real-Time-Systems/Ada_Drivers_Library/boards/MicroBit/obj/zfp_lib_Debug/libada_drivers_library.a(nrf51_svd-gpio.o)
 .text.nrf51_svd__gpio__out_registerEQ__E35s.4764
                0x0000000000000000       0x44 /home/nico/Downloads/Real-Time-Systems/Ada_Drivers_Library/boards/MicroBit/obj/zfp_lib_Debug/libada_drivers_library.a(nrf51_svd-gpio.o)
 .text.nrf51_svd__gpio__out_registerEQ
                0x0000000000000000       0x80 /home/nico/Downloads/Real-Time-Systems/Ada_Drivers_Library/boards/MicroBit/obj/zfp_lib_Debug/libada_drivers_library.a(nrf51_svd-gpio.o)
 .text.nrf51_svd__gpio__out_registerIP
                0x0000000000000000       0x14 /home/nico/Downloads/Real-Time-Systems/Ada_Drivers_Library/boards/MicroBit/obj/zfp_lib_Debug/libada_drivers_library.a(nrf51_svd-gpio.o)
 .text.nrf51_svd__gpio__Toutset_pin_field_arrayBIP
                0x0000000000000000       0x10 /home/nico/Downloads/Real-Time-Systems/Ada_Drivers_Library/boards/MicroBit/obj/zfp_lib_Debug/libada_drivers_library.a(nrf51_svd-gpio.o)
 .text.nrf51_svd__gpio__outset_registerEQ__E48s.4771
                0x0000000000000000       0x44 /home/nico/Downloads/Real-Time-Systems/Ada_Drivers_Library/boards/MicroBit/obj/zfp_lib_Debug/libada_drivers_library.a(nrf51_svd-gpio.o)
 .text.nrf51_svd__gpio__outset_registerEQ
                0x0000000000000000       0x80 /home/nico/Downloads/Real-Time-Systems/Ada_Drivers_Library/boards/MicroBit/obj/zfp_lib_Debug/libada_drivers_library.a(nrf51_svd-gpio.o)
 .text.nrf51_svd__gpio__outset_registerIP
                0x0000000000000000       0x14 /home/nico/Downloads/Real-Time-Systems/Ada_Drivers_Library/boards/MicroBit/obj/zfp_lib_Debug/libada_drivers_library.a(nrf51_svd-gpio.o)
 .text.nrf51_svd__gpio__Toutclr_pin_field_arrayBIP
                0x0000000000000000       0x10 /home/nico/Downloads/Real-Time-Systems/Ada_Drivers_Library/boards/MicroBit/obj/zfp_lib_Debug/libada_drivers_library.a(nrf51_svd-gpio.o)
 .text.nrf51_svd__gpio__outclr_registerEQ__E61s.4778
                0x0000000000000000       0x44 /home/nico/Downloads/Real-Time-Systems/Ada_Drivers_Library/boards/MicroBit/obj/zfp_lib_Debug/libada_drivers_library.a(nrf51_svd-gpio.o)
 .text.nrf51_svd__gpio__outclr_registerEQ
                0x0000000000000000       0x80 /home/nico/Downloads/Real-Time-Systems/Ada_Drivers_Library/boards/MicroBit/obj/zfp_lib_Debug/libada_drivers_library.a(nrf51_svd-gpio.o)
 .text.nrf51_svd__gpio__outclr_registerIP
                0x0000000000000000       0x14 /home/nico/Downloads/Real-Time-Systems/Ada_Drivers_Library/boards/MicroBit/obj/zfp_lib_Debug/libada_drivers_library.a(nrf51_svd-gpio.o)
 .text.nrf51_svd__gpio__Tin_pin_field_arrayBIP
                0x0000000000000000       0x10 /home/nico/Downloads/Real-Time-Systems/Ada_Drivers_Library/boards/MicroBit/obj/zfp_lib_Debug/libada_drivers_library.a(nrf51_svd-gpio.o)
 .text.nrf51_svd__gpio__in_registerEQ__E74s.4785
                0x0000000000000000       0x44 /home/nico/Downloads/Real-Time-Systems/Ada_Drivers_Library/boards/MicroBit/obj/zfp_lib_Debug/libada_drivers_library.a(nrf51_svd-gpio.o)
 .text.nrf51_svd__gpio__in_registerEQ
                0x0000000000000000       0x80 /home/nico/Downloads/Real-Time-Systems/Ada_Drivers_Library/boards/MicroBit/obj/zfp_lib_Debug/libada_drivers_library.a(nrf51_svd-gpio.o)
 .text.nrf51_svd__gpio__in_registerIP
                0x0000000000000000       0x14 /home/nico/Downloads/Real-Time-Systems/Ada_Drivers_Library/boards/MicroBit/obj/zfp_lib_Debug/libada_drivers_library.a(nrf51_svd-gpio.o)
 .text.nrf51_svd__gpio__Tdir_pin_field_arrayBIP
                0x0000000000000000       0x10 /home/nico/Downloads/Real-Time-Systems/Ada_Drivers_Library/boards/MicroBit/obj/zfp_lib_Debug/libada_drivers_library.a(nrf51_svd-gpio.o)
 .text.nrf51_svd__gpio__dir_registerEQ__E87s.4792
                0x0000000000000000       0x44 /home/nico/Downloads/Real-Time-Systems/Ada_Drivers_Library/boards/MicroBit/obj/zfp_lib_Debug/libada_drivers_library.a(nrf51_svd-gpio.o)
 .text.nrf51_svd__gpio__dir_registerEQ
                0x0000000000000000       0x80 /home/nico/Downloads/Real-Time-Systems/Ada_Drivers_Library/boards/MicroBit/obj/zfp_lib_Debug/libada_drivers_library.a(nrf51_svd-gpio.o)
 .text.nrf51_svd__gpio__dir_registerIP
                0x0000000000000000       0x14 /home/nico/Downloads/Real-Time-Systems/Ada_Drivers_Library/boards/MicroBit/obj/zfp_lib_Debug/libada_drivers_library.a(nrf51_svd-gpio.o)
 .text.nrf51_svd__gpio__Tdirset_pin_field_arrayBIP
                0x0000000000000000       0x10 /home/nico/Downloads/Real-Time-Systems/Ada_Drivers_Library/boards/MicroBit/obj/zfp_lib_Debug/libada_drivers_library.a(nrf51_svd-gpio.o)
 .text.nrf51_svd__gpio__dirset_registerEQ__E100s.4799
                0x0000000000000000       0x44 /home/nico/Downloads/Real-Time-Systems/Ada_Drivers_Library/boards/MicroBit/obj/zfp_lib_Debug/libada_drivers_library.a(nrf51_svd-gpio.o)
 .text.nrf51_svd__gpio__dirset_registerEQ
                0x0000000000000000       0x80 /home/nico/Downloads/Real-Time-Systems/Ada_Drivers_Library/boards/MicroBit/obj/zfp_lib_Debug/libada_drivers_library.a(nrf51_svd-gpio.o)
 .text.nrf51_svd__gpio__dirset_registerIP
                0x0000000000000000       0x14 /home/nico/Downloads/Real-Time-Systems/Ada_Drivers_Library/boards/MicroBit/obj/zfp_lib_Debug/libada_drivers_library.a(nrf51_svd-gpio.o)
 .text.nrf51_svd__gpio__Tdirclr_pin_field_arrayBIP
                0x0000000000000000       0x10 /home/nico/Downloads/Real-Time-Systems/Ada_Drivers_Library/boards/MicroBit/obj/zfp_lib_Debug/libada_drivers_library.a(nrf51_svd-gpio.o)
 .text.nrf51_svd__gpio__dirclr_registerEQ__E113s.4806
                0x0000000000000000       0x44 /home/nico/Downloads/Real-Time-Systems/Ada_Drivers_Library/boards/MicroBit/obj/zfp_lib_Debug/libada_drivers_library.a(nrf51_svd-gpio.o)
 .text.nrf51_svd__gpio__dirclr_registerEQ
                0x0000000000000000       0x80 /home/nico/Downloads/Real-Time-Systems/Ada_Drivers_Library/boards/MicroBit/obj/zfp_lib_Debug/libada_drivers_library.a(nrf51_svd-gpio.o)
 .text.nrf51_svd__gpio__dirclr_registerIP
                0x0000000000000000       0x14 /home/nico/Downloads/Real-Time-Systems/Ada_Drivers_Library/boards/MicroBit/obj/zfp_lib_Debug/libada_drivers_library.a(nrf51_svd-gpio.o)
 .text.nrf51_svd__gpio__pin_cnf_registerIP
                0x0000000000000000       0x8c /home/nico/Downloads/Real-Time-Systems/Ada_Drivers_Library/boards/MicroBit/obj/zfp_lib_Debug/libada_drivers_library.a(nrf51_svd-gpio.o)
 .text.nrf51_svd__gpio__Tpin_cnf_registersBIP
                0x0000000000000000       0x3c /home/nico/Downloads/Real-Time-Systems/Ada_Drivers_Library/boards/MicroBit/obj/zfp_lib_Debug/libada_drivers_library.a(nrf51_svd-gpio.o)
 .rodata        0x0000000000000000       0x1c /home/nico/Downloads/Real-Time-Systems/Ada_Drivers_Library/boards/MicroBit/obj/zfp_lib_Debug/libada_drivers_library.a(nrf51_svd-gpio.o)
 .text.nrf51_svd__gpio__gpio_peripheralEQ
                0x0000000000000000       0x20 /home/nico/Downloads/Real-Time-Systems/Ada_Drivers_Library/boards/MicroBit/obj/zfp_lib_Debug/libada_drivers_library.a(nrf51_svd-gpio.o)
 .text.nrf51_svd__gpio__gpio_peripheralIP
                0x0000000000000000       0x2c /home/nico/Downloads/Real-Time-Systems/Ada_Drivers_Library/boards/MicroBit/obj/zfp_lib_Debug/libada_drivers_library.a(nrf51_svd-gpio.o)
 .rodata.nrf51_svd__gpio__pin_cnf_pull_fieldA
                0x0000000000000000        0x4 /home/nico/Downloads/Real-Time-Systems/Ada_Drivers_Library/boards/MicroBit/obj/zfp_lib_Debug/libada_drivers_library.a(nrf51_svd-gpio.o)
 .rodata.nrf51_svd__gpio__pin_cnf_sense_fieldA
                0x0000000000000000        0x4 /home/nico/Downloads/Real-Time-Systems/Ada_Drivers_Library/boards/MicroBit/obj/zfp_lib_Debug/libada_drivers_library.a(nrf51_svd-gpio.o)
 .rodata.nrf51_svd__gpio__gpio_periph
                0x0000000000000000        0x4 /home/nico/Downloads/Real-Time-Systems/Ada_Drivers_Library/boards/MicroBit/obj/zfp_lib_Debug/libada_drivers_library.a(nrf51_svd-gpio.o)
 .text          0x0000000000000000        0x0 /home/nico/Downloads/Real-Time-Systems/Ada_Drivers_Library/boards/MicroBit/obj/zfp_lib_Debug/libada_drivers_library.a(nrf51_svd-twi.o)
 .data          0x0000000000000000        0x0 /home/nico/Downloads/Real-Time-Systems/Ada_Drivers_Library/boards/MicroBit/obj/zfp_lib_Debug/libada_drivers_library.a(nrf51_svd-twi.o)
 .bss           0x0000000000000000        0x0 /home/nico/Downloads/Real-Time-Systems/Ada_Drivers_Library/boards/MicroBit/obj/zfp_lib_Debug/libada_drivers_library.a(nrf51_svd-twi.o)
 .text.nrf51_svd__twi__enable_enable_fieldRP
                0x0000000000000000       0x34 /home/nico/Downloads/Real-Time-Systems/Ada_Drivers_Library/boards/MicroBit/obj/zfp_lib_Debug/libada_drivers_library.a(nrf51_svd-twi.o)
 .text.nrf51_svd__twi__shorts_registerIP
                0x0000000000000000       0x38 /home/nico/Downloads/Real-Time-Systems/Ada_Drivers_Library/boards/MicroBit/obj/zfp_lib_Debug/libada_drivers_library.a(nrf51_svd-twi.o)
 .text.nrf51_svd__twi__intenset_registerIP
                0x0000000000000000       0xd0 /home/nico/Downloads/Real-Time-Systems/Ada_Drivers_Library/boards/MicroBit/obj/zfp_lib_Debug/libada_drivers_library.a(nrf51_svd-twi.o)
 .text.nrf51_svd__twi__intenclr_registerIP
                0x0000000000000000       0xd0 /home/nico/Downloads/Real-Time-Systems/Ada_Drivers_Library/boards/MicroBit/obj/zfp_lib_Debug/libada_drivers_library.a(nrf51_svd-twi.o)
 .text.nrf51_svd__twi__enable_registerIP
                0x0000000000000000       0x2c /home/nico/Downloads/Real-Time-Systems/Ada_Drivers_Library/boards/MicroBit/obj/zfp_lib_Debug/libada_drivers_library.a(nrf51_svd-twi.o)
 .text.nrf51_svd__twi__rxd_registerIP
                0x0000000000000000       0x10 /home/nico/Downloads/Real-Time-Systems/Ada_Drivers_Library/boards/MicroBit/obj/zfp_lib_Debug/libada_drivers_library.a(nrf51_svd-twi.o)
 .text.nrf51_svd__twi__txd_registerIP
                0x0000000000000000       0x2c /home/nico/Downloads/Real-Time-Systems/Ada_Drivers_Library/boards/MicroBit/obj/zfp_lib_Debug/libada_drivers_library.a(nrf51_svd-twi.o)
 .text.nrf51_svd__twi__address_registerIP
                0x0000000000000000       0x2c /home/nico/Downloads/Real-Time-Systems/Ada_Drivers_Library/boards/MicroBit/obj/zfp_lib_Debug/libada_drivers_library.a(nrf51_svd-twi.o)
 .text.nrf51_svd__twi__power_registerIP
                0x0000000000000000       0x2c /home/nico/Downloads/Real-Time-Systems/Ada_Drivers_Library/boards/MicroBit/obj/zfp_lib_Debug/libada_drivers_library.a(nrf51_svd-twi.o)
 .text.nrf51_svd__twi__twi_peripheralIP
                0x0000000000000000       0x94 /home/nico/Downloads/Real-Time-Systems/Ada_Drivers_Library/boards/MicroBit/obj/zfp_lib_Debug/libada_drivers_library.a(nrf51_svd-twi.o)
 .rodata.nrf51_svd__twi__enable_enable_fieldA
                0x0000000000000000        0x2 /home/nico/Downloads/Real-Time-Systems/Ada_Drivers_Library/boards/MicroBit/obj/zfp_lib_Debug/libada_drivers_library.a(nrf51_svd-twi.o)
 .rodata.nrf51_svd__twi__twi0_periph
                0x0000000000000000        0x4 /home/nico/Downloads/Real-Time-Systems/Ada_Drivers_Library/boards/MicroBit/obj/zfp_lib_Debug/libada_drivers_library.a(nrf51_svd-twi.o)
 .rodata.nrf51_svd__twi__twi1_periph
                0x0000000000000000        0x4 /home/nico/Downloads/Real-Time-Systems/Ada_Drivers_Library/boards/MicroBit/obj/zfp_lib_Debug/libada_drivers_library.a(nrf51_svd-twi.o)
 .text          0x0000000000000000        0x0 /home/nico/Downloads/Real-Time-Systems/Ada_Drivers_Library/boards/MicroBit/obj/zfp_lib_Debug/libada_drivers_library.a(hal-gpio.o)
 .data          0x0000000000000000        0x0 /home/nico/Downloads/Real-Time-Systems/Ada_Drivers_Library/boards/MicroBit/obj/zfp_lib_Debug/libada_drivers_library.a(hal-gpio.o)
 .bss           0x0000000000000000        0x0 /home/nico/Downloads/Real-Time-Systems/Ada_Drivers_Library/boards/MicroBit/obj/zfp_lib_Debug/libada_drivers_library.a(hal-gpio.o)
 .data.hal__gpio_E
                0x0000000000000000        0x2 /home/nico/Downloads/Real-Time-Systems/Ada_Drivers_Library/boards/MicroBit/obj/zfp_lib_Debug/libada_drivers_library.a(hal-gpio.o)
 .rodata.hal__gpio__gpio_pointP
                0x0000000000000000        0x4 /home/nico/Downloads/Real-Time-Systems/Ada_Drivers_Library/boards/MicroBit/obj/zfp_lib_Debug/libada_drivers_library.a(hal-gpio.o)
 .text          0x0000000000000000        0x0 /home/nico/Downloads/Real-Time-Systems/Ada_Drivers_Library/boards/MicroBit/obj/zfp_lib_Debug/libada_drivers_library.a(hal-i2c.o)
 .data          0x0000000000000000        0x0 /home/nico/Downloads/Real-Time-Systems/Ada_Drivers_Library/boards/MicroBit/obj/zfp_lib_Debug/libada_drivers_library.a(hal-i2c.o)
 .bss           0x0000000000000000        0x0 /home/nico/Downloads/Real-Time-Systems/Ada_Drivers_Library/boards/MicroBit/obj/zfp_lib_Debug/libada_drivers_library.a(hal-i2c.o)
 .data.hal__i2c_E
                0x0000000000000000        0x2 /home/nico/Downloads/Real-Time-Systems/Ada_Drivers_Library/boards/MicroBit/obj/zfp_lib_Debug/libada_drivers_library.a(hal-i2c.o)
 .rodata.hal__i2c__i2c_portP
                0x0000000000000000        0x4 /home/nico/Downloads/Real-Time-Systems/Ada_Drivers_Library/boards/MicroBit/obj/zfp_lib_Debug/libada_drivers_library.a(hal-i2c.o)
 .text          0x0000000000000000        0x0 /home/nico/Downloads/Real-Time-Systems/Ada_Drivers_Library/boards/MicroBit/obj/zfp_lib_Debug/libada_drivers_library.a(hal-spi.o)
 .data          0x0000000000000000        0x0 /home/nico/Downloads/Real-Time-Systems/Ada_Drivers_Library/boards/MicroBit/obj/zfp_lib_Debug/libada_drivers_library.a(hal-spi.o)
 .bss           0x0000000000000000        0x0 /home/nico/Downloads/Real-Time-Systems/Ada_Drivers_Library/boards/MicroBit/obj/zfp_lib_Debug/libada_drivers_library.a(hal-spi.o)
 .text.hal__spi__spi_data_8bIP
                0x0000000000000000       0x10 /home/nico/Downloads/Real-Time-Systems/Ada_Drivers_Library/boards/MicroBit/obj/zfp_lib_Debug/libada_drivers_library.a(hal-spi.o)
 .text.hal__spi__spi_data_16bIP
                0x0000000000000000       0x10 /home/nico/Downloads/Real-Time-Systems/Ada_Drivers_Library/boards/MicroBit/obj/zfp_lib_Debug/libada_drivers_library.a(hal-spi.o)
 .data.hal__spi_E
                0x0000000000000000        0x2 /home/nico/Downloads/Real-Time-Systems/Ada_Drivers_Library/boards/MicroBit/obj/zfp_lib_Debug/libada_drivers_library.a(hal-spi.o)
 .rodata.hal__spi__spi_portP
                0x0000000000000000        0x4 /home/nico/Downloads/Real-Time-Systems/Ada_Drivers_Library/boards/MicroBit/obj/zfp_lib_Debug/libada_drivers_library.a(hal-spi.o)
 .text          0x0000000000000000        0x0 /home/nico/Downloads/Real-Time-Systems/Ada_Drivers_Library/boards/MicroBit/obj/zfp_lib_Debug/libada_drivers_library.a(hal-time.o)
 .data          0x0000000000000000        0x0 /home/nico/Downloads/Real-Time-Systems/Ada_Drivers_Library/boards/MicroBit/obj/zfp_lib_Debug/libada_drivers_library.a(hal-time.o)
 .bss           0x0000000000000000        0x0 /home/nico/Downloads/Real-Time-Systems/Ada_Drivers_Library/boards/MicroBit/obj/zfp_lib_Debug/libada_drivers_library.a(hal-time.o)
 .data.hal__time_E
                0x0000000000000000        0x2 /home/nico/Downloads/Real-Time-Systems/Ada_Drivers_Library/boards/MicroBit/obj/zfp_lib_Debug/libada_drivers_library.a(hal-time.o)
 .rodata.hal__time__delaysP
                0x0000000000000000        0x4 /home/nico/Downloads/Real-Time-Systems/Ada_Drivers_Library/boards/MicroBit/obj/zfp_lib_Debug/libada_drivers_library.a(hal-time.o)
 .text          0x0000000000000000        0x0 /home/nico/Downloads/Real-Time-Systems/Ada_Drivers_Library/boards/MicroBit/obj/zfp_lib_Debug/libada_drivers_library.a(hal-uart.o)
 .data          0x0000000000000000        0x0 /home/nico/Downloads/Real-Time-Systems/Ada_Drivers_Library/boards/MicroBit/obj/zfp_lib_Debug/libada_drivers_library.a(hal-uart.o)
 .bss           0x0000000000000000        0x0 /home/nico/Downloads/Real-Time-Systems/Ada_Drivers_Library/boards/MicroBit/obj/zfp_lib_Debug/libada_drivers_library.a(hal-uart.o)
 .text.hal__uart__uart_data_8bIP
                0x0000000000000000       0x10 /home/nico/Downloads/Real-Time-Systems/Ada_Drivers_Library/boards/MicroBit/obj/zfp_lib_Debug/libada_drivers_library.a(hal-uart.o)
 .text.hal__uart__uart_data_9bIP
                0x0000000000000000       0x10 /home/nico/Downloads/Real-Time-Systems/Ada_Drivers_Library/boards/MicroBit/obj/zfp_lib_Debug/libada_drivers_library.a(hal-uart.o)
 .data.hal__uart_E
                0x0000000000000000        0x2 /home/nico/Downloads/Real-Time-Systems/Ada_Drivers_Library/boards/MicroBit/obj/zfp_lib_Debug/libada_drivers_library.a(hal-uart.o)
 .rodata.hal__uart__uart_portP
                0x0000000000000000        0x4 /home/nico/Downloads/Real-Time-Systems/Ada_Drivers_Library/boards/MicroBit/obj/zfp_lib_Debug/libada_drivers_library.a(hal-uart.o)
 .text          0x0000000000000000        0x0 /home/nico/opt/GNAT/2019-arm-elf/arm-eabi/lib/gnat/zfp-cortex-m0/adalib/libgnat.a(a-elchha.o)
 .data          0x0000000000000000        0x0 /home/nico/opt/GNAT/2019-arm-elf/arm-eabi/lib/gnat/zfp-cortex-m0/adalib/libgnat.a(a-elchha.o)
 .bss           0x0000000000000000        0x0 /home/nico/opt/GNAT/2019-arm-elf/arm-eabi/lib/gnat/zfp-cortex-m0/adalib/libgnat.a(a-elchha.o)
 .data.ada__exceptions__last_chance_handler_E
                0x0000000000000000        0x2 /home/nico/opt/GNAT/2019-arm-elf/arm-eabi/lib/gnat/zfp-cortex-m0/adalib/libgnat.a(a-elchha.o)
 .text          0x0000000000000000        0x0 /home/nico/opt/GNAT/2019-arm-elf/arm-eabi/lib/gnat/zfp-cortex-m0/adalib/libgnat.a(a-except.o)
 .data          0x0000000000000000        0x0 /home/nico/opt/GNAT/2019-arm-elf/arm-eabi/lib/gnat/zfp-cortex-m0/adalib/libgnat.a(a-except.o)
 .bss           0x0000000000000000        0x0 /home/nico/opt/GNAT/2019-arm-elf/arm-eabi/lib/gnat/zfp-cortex-m0/adalib/libgnat.a(a-except.o)
 .data.ada__exceptions_E
                0x0000000000000000        0x2 /home/nico/opt/GNAT/2019-arm-elf/arm-eabi/lib/gnat/zfp-cortex-m0/adalib/libgnat.a(a-except.o)
 .rodata.ada__exceptions__null_id
                0x0000000000000000        0x4 /home/nico/opt/GNAT/2019-arm-elf/arm-eabi/lib/gnat/zfp-cortex-m0/adalib/libgnat.a(a-except.o)
 .rodata.ada__exceptions__empty_c_string
                0x0000000000000000        0x4 /home/nico/opt/GNAT/2019-arm-elf/arm-eabi/lib/gnat/zfp-cortex-m0/adalib/libgnat.a(a-except.o)
 .data          0x0000000000000000        0x0 /home/nico/opt/GNAT/2019-arm-elf/arm-eabi/lib/gnat/zfp-cortex-m0/adalib/libgnat.a(breakpoint_handler-cortexm.o)
 .bss           0x0000000000000000        0x0 /home/nico/opt/GNAT/2019-arm-elf/arm-eabi/lib/gnat/zfp-cortex-m0/adalib/libgnat.a(breakpoint_handler-cortexm.o)
 .text          0x0000000000000000        0x0 /home/nico/opt/GNAT/2019-arm-elf/arm-eabi/lib/gnat/zfp-cortex-m0/adalib/libgnat.a(g-io.o)
 .data          0x0000000000000000        0x0 /home/nico/opt/GNAT/2019-arm-elf/arm-eabi/lib/gnat/zfp-cortex-m0/adalib/libgnat.a(g-io.o)
 .bss           0x0000000000000000        0x0 /home/nico/opt/GNAT/2019-arm-elf/arm-eabi/lib/gnat/zfp-cortex-m0/adalib/libgnat.a(g-io.o)
 .data.gnat__io_E
                0x0000000000000000        0x2 /home/nico/opt/GNAT/2019-arm-elf/arm-eabi/lib/gnat/zfp-cortex-m0/adalib/libgnat.a(g-io.o)
 .text          0x0000000000000000        0x0 /home/nico/opt/GNAT/2019-arm-elf/arm-eabi/lib/gnat/zfp-cortex-m0/adalib/libgnat.a(s-assert.o)
 .data          0x0000000000000000        0x0 /home/nico/opt/GNAT/2019-arm-elf/arm-eabi/lib/gnat/zfp-cortex-m0/adalib/libgnat.a(s-assert.o)
 .bss           0x0000000000000000        0x0 /home/nico/opt/GNAT/2019-arm-elf/arm-eabi/lib/gnat/zfp-cortex-m0/adalib/libgnat.a(s-assert.o)
 .data.system__assertions_E
                0x0000000000000000        0x2 /home/nico/opt/GNAT/2019-arm-elf/arm-eabi/lib/gnat/zfp-cortex-m0/adalib/libgnat.a(s-assert.o)
 .data.system__assertions__assert_failure
                0x0000000000000000       0x18 /home/nico/opt/GNAT/2019-arm-elf/arm-eabi/lib/gnat/zfp-cortex-m0/adalib/libgnat.a(s-assert.o)
 .rodata.system__assertions__R2s
                0x0000000000000000        0x4 /home/nico/opt/GNAT/2019-arm-elf/arm-eabi/lib/gnat/zfp-cortex-m0/adalib/libgnat.a(s-assert.o)
 .rodata.system__assertions__assert_failureE
                0x0000000000000000        0x1 /home/nico/opt/GNAT/2019-arm-elf/arm-eabi/lib/gnat/zfp-cortex-m0/adalib/libgnat.a(s-assert.o)
 .text          0x0000000000000000        0x0 /home/nico/opt/GNAT/2019-arm-elf/arm-eabi/lib/gnat/zfp-cortex-m0/adalib/libgnat.a(s-imgint.o)
 .data          0x0000000000000000        0x0 /home/nico/opt/GNAT/2019-arm-elf/arm-eabi/lib/gnat/zfp-cortex-m0/adalib/libgnat.a(s-imgint.o)
 .bss           0x0000000000000000        0x0 /home/nico/opt/GNAT/2019-arm-elf/arm-eabi/lib/gnat/zfp-cortex-m0/adalib/libgnat.a(s-imgint.o)
 .data.system__img_int_E
                0x0000000000000000        0x2 /home/nico/opt/GNAT/2019-arm-elf/arm-eabi/lib/gnat/zfp-cortex-m0/adalib/libgnat.a(s-imgint.o)
 .text          0x0000000000000000        0x0 /home/nico/opt/GNAT/2019-arm-elf/arm-eabi/lib/gnat/zfp-cortex-m0/adalib/libgnat.a(s-macres.o)
 .data          0x0000000000000000        0x0 /home/nico/opt/GNAT/2019-arm-elf/arm-eabi/lib/gnat/zfp-cortex-m0/adalib/libgnat.a(s-macres.o)
 .bss           0x0000000000000000        0x0 /home/nico/opt/GNAT/2019-arm-elf/arm-eabi/lib/gnat/zfp-cortex-m0/adalib/libgnat.a(s-macres.o)
 .text.abort    0x0000000000000000       0x10 /home/nico/opt/GNAT/2019-arm-elf/arm-eabi/lib/gnat/zfp-cortex-m0/adalib/libgnat.a(s-macres.o)
 .data.system__machine_reset_E
                0x0000000000000000        0x2 /home/nico/opt/GNAT/2019-arm-elf/arm-eabi/lib/gnat/zfp-cortex-m0/adalib/libgnat.a(s-macres.o)
 .text          0x0000000000000000        0x0 /home/nico/opt/GNAT/2019-arm-elf/arm-eabi/lib/gnat/zfp-cortex-m0/adalib/libgnat.a(s-memcom.o)
 .data          0x0000000000000000        0x0 /home/nico/opt/GNAT/2019-arm-elf/arm-eabi/lib/gnat/zfp-cortex-m0/adalib/libgnat.a(s-memcom.o)
 .bss           0x0000000000000000        0x0 /home/nico/opt/GNAT/2019-arm-elf/arm-eabi/lib/gnat/zfp-cortex-m0/adalib/libgnat.a(s-memcom.o)
 .data.system__memory_compare_E
                0x0000000000000000        0x2 /home/nico/opt/GNAT/2019-arm-elf/arm-eabi/lib/gnat/zfp-cortex-m0/adalib/libgnat.a(s-memcom.o)
 .text          0x0000000000000000        0x0 /home/nico/opt/GNAT/2019-arm-elf/arm-eabi/lib/gnat/zfp-cortex-m0/adalib/libgnat.a(s-memcop.o)
 .data          0x0000000000000000        0x0 /home/nico/opt/GNAT/2019-arm-elf/arm-eabi/lib/gnat/zfp-cortex-m0/adalib/libgnat.a(s-memcop.o)
 .bss           0x0000000000000000        0x0 /home/nico/opt/GNAT/2019-arm-elf/arm-eabi/lib/gnat/zfp-cortex-m0/adalib/libgnat.a(s-memcop.o)
 .data.system__memory_copy_E
                0x0000000000000000        0x2 /home/nico/opt/GNAT/2019-arm-elf/arm-eabi/lib/gnat/zfp-cortex-m0/adalib/libgnat.a(s-memcop.o)
 .text          0x0000000000000000        0x0 /home/nico/opt/GNAT/2019-arm-elf/arm-eabi/lib/gnat/zfp-cortex-m0/adalib/libgnat.a(s-memmov.o)
 .data          0x0000000000000000        0x0 /home/nico/opt/GNAT/2019-arm-elf/arm-eabi/lib/gnat/zfp-cortex-m0/adalib/libgnat.a(s-memmov.o)
 .bss           0x0000000000000000        0x0 /home/nico/opt/GNAT/2019-arm-elf/arm-eabi/lib/gnat/zfp-cortex-m0/adalib/libgnat.a(s-memmov.o)
 .text.memmove  0x0000000000000000       0xa4 /home/nico/opt/GNAT/2019-arm-elf/arm-eabi/lib/gnat/zfp-cortex-m0/adalib/libgnat.a(s-memmov.o)
 .data.system__memory_move_E
                0x0000000000000000        0x2 /home/nico/opt/GNAT/2019-arm-elf/arm-eabi/lib/gnat/zfp-cortex-m0/adalib/libgnat.a(s-memmov.o)
 .comment       0x0000000000000000       0x3e /home/nico/opt/GNAT/2019-arm-elf/arm-eabi/lib/gnat/zfp-cortex-m0/adalib/libgnat.a(s-memmov.o)
 .ARM.attributes
                0x0000000000000000       0x2f /home/nico/opt/GNAT/2019-arm-elf/arm-eabi/lib/gnat/zfp-cortex-m0/adalib/libgnat.a(s-memmov.o)
 .text          0x0000000000000000        0x0 /home/nico/opt/GNAT/2019-arm-elf/arm-eabi/lib/gnat/zfp-cortex-m0/adalib/libgnat.a(s-memset.o)
 .data          0x0000000000000000        0x0 /home/nico/opt/GNAT/2019-arm-elf/arm-eabi/lib/gnat/zfp-cortex-m0/adalib/libgnat.a(s-memset.o)
 .bss           0x0000000000000000        0x0 /home/nico/opt/GNAT/2019-arm-elf/arm-eabi/lib/gnat/zfp-cortex-m0/adalib/libgnat.a(s-memset.o)
 .data.system__memory_set_E
                0x0000000000000000        0x2 /home/nico/opt/GNAT/2019-arm-elf/arm-eabi/lib/gnat/zfp-cortex-m0/adalib/libgnat.a(s-memset.o)
 .text          0x0000000000000000        0x0 /home/nico/opt/GNAT/2019-arm-elf/arm-eabi/lib/gnat/zfp-cortex-m0/adalib/libgnat.a(s-secsta.o)
 .data          0x0000000000000000        0x0 /home/nico/opt/GNAT/2019-arm-elf/arm-eabi/lib/gnat/zfp-cortex-m0/adalib/libgnat.a(s-secsta.o)
 .bss           0x0000000000000000        0x0 /home/nico/opt/GNAT/2019-arm-elf/arm-eabi/lib/gnat/zfp-cortex-m0/adalib/libgnat.a(s-secsta.o)
 .text.system__secondary_stack__memoryIP
                0x0000000000000000        0x4 /home/nico/opt/GNAT/2019-arm-elf/arm-eabi/lib/gnat/zfp-cortex-m0/adalib/libgnat.a(s-secsta.o)
 .text.system__secondary_stack__ss_allocate
                0x0000000000000000       0x58 /home/nico/opt/GNAT/2019-arm-elf/arm-eabi/lib/gnat/zfp-cortex-m0/adalib/libgnat.a(s-secsta.o)
 .text.system__secondary_stack__ss_get_max
                0x0000000000000000       0x10 /home/nico/opt/GNAT/2019-arm-elf/arm-eabi/lib/gnat/zfp-cortex-m0/adalib/libgnat.a(s-secsta.o)
 .text.system__secondary_stack__ss_init
                0x0000000000000000       0x78 /home/nico/opt/GNAT/2019-arm-elf/arm-eabi/lib/gnat/zfp-cortex-m0/adalib/libgnat.a(s-secsta.o)
 .text.system__secondary_stack__ss_mark
                0x0000000000000000        0xc /home/nico/opt/GNAT/2019-arm-elf/arm-eabi/lib/gnat/zfp-cortex-m0/adalib/libgnat.a(s-secsta.o)
 .text.system__secondary_stack__ss_release
                0x0000000000000000        0xc /home/nico/opt/GNAT/2019-arm-elf/arm-eabi/lib/gnat/zfp-cortex-m0/adalib/libgnat.a(s-secsta.o)
 .rodata        0x0000000000000000        0xd /home/nico/opt/GNAT/2019-arm-elf/arm-eabi/lib/gnat/zfp-cortex-m0/adalib/libgnat.a(s-secsta.o)
 .bss.system__secondary_stack__ss_pool
                0x0000000000000000        0x4 /home/nico/opt/GNAT/2019-arm-elf/arm-eabi/lib/gnat/zfp-cortex-m0/adalib/libgnat.a(s-secsta.o)
 .data.system__secondary_stack_E
                0x0000000000000000        0x2 /home/nico/opt/GNAT/2019-arm-elf/arm-eabi/lib/gnat/zfp-cortex-m0/adalib/libgnat.a(s-secsta.o)
 .data.system__secondary_stack__num_of_assigned_stacks
                0x0000000000000000        0x4 /home/nico/opt/GNAT/2019-arm-elf/arm-eabi/lib/gnat/zfp-cortex-m0/adalib/libgnat.a(s-secsta.o)
 .text          0x0000000000000000        0x0 /home/nico/opt/GNAT/2019-arm-elf/arm-eabi/lib/gnat/zfp-cortex-m0/adalib/libgnat.a(s-sssita.o)
 .data          0x0000000000000000        0x0 /home/nico/opt/GNAT/2019-arm-elf/arm-eabi/lib/gnat/zfp-cortex-m0/adalib/libgnat.a(s-sssita.o)
 .bss           0x0000000000000000        0x0 /home/nico/opt/GNAT/2019-arm-elf/arm-eabi/lib/gnat/zfp-cortex-m0/adalib/libgnat.a(s-sssita.o)
 .text.__gnat_get_secondary_stack
                0x0000000000000000       0x1c /home/nico/opt/GNAT/2019-arm-elf/arm-eabi/lib/gnat/zfp-cortex-m0/adalib/libgnat.a(s-sssita.o)
 .data.system__secondary_stack__single_task__secondary_stack
                0x0000000000000000        0x4 /home/nico/opt/GNAT/2019-arm-elf/arm-eabi/lib/gnat/zfp-cortex-m0/adalib/libgnat.a(s-sssita.o)
 .comment       0x0000000000000000       0x3e /home/nico/opt/GNAT/2019-arm-elf/arm-eabi/lib/gnat/zfp-cortex-m0/adalib/libgnat.a(s-sssita.o)
 .ARM.attributes
                0x0000000000000000       0x2f /home/nico/opt/GNAT/2019-arm-elf/arm-eabi/lib/gnat/zfp-cortex-m0/adalib/libgnat.a(s-sssita.o)
 .text          0x0000000000000000        0x0 /home/nico/opt/GNAT/2019-arm-elf/arm-eabi/lib/gnat/zfp-cortex-m0/adalib/libgnat.a(s-textio.o)
 .data          0x0000000000000000        0x0 /home/nico/opt/GNAT/2019-arm-elf/arm-eabi/lib/gnat/zfp-cortex-m0/adalib/libgnat.a(s-textio.o)
 .bss           0x0000000000000000        0x0 /home/nico/opt/GNAT/2019-arm-elf/arm-eabi/lib/gnat/zfp-cortex-m0/adalib/libgnat.a(s-textio.o)
 .text.system__text_io__is_rx_ready
                0x0000000000000000        0x4 /home/nico/opt/GNAT/2019-arm-elf/arm-eabi/lib/gnat/zfp-cortex-m0/adalib/libgnat.a(s-textio.o)
 .text.system__text_io__get
                0x0000000000000000        0x8 /home/nico/opt/GNAT/2019-arm-elf/arm-eabi/lib/gnat/zfp-cortex-m0/adalib/libgnat.a(s-textio.o)
 .data.system__text_io_E
                0x0000000000000000        0x2 /home/nico/opt/GNAT/2019-arm-elf/arm-eabi/lib/gnat/zfp-cortex-m0/adalib/libgnat.a(s-textio.o)
 .text          0x0000000000000000        0x0 /home/nico/opt/GNAT/2019-arm-elf/arm-eabi/lib/gnat/zfp-cortex-m0/adalib/libgnat.a(s-semiho.o)
 .data          0x0000000000000000        0x0 /home/nico/opt/GNAT/2019-arm-elf/arm-eabi/lib/gnat/zfp-cortex-m0/adalib/libgnat.a(s-semiho.o)
 .bss           0x0000000000000000        0x0 /home/nico/opt/GNAT/2019-arm-elf/arm-eabi/lib/gnat/zfp-cortex-m0/adalib/libgnat.a(s-semiho.o)
 .text.system__semihosting__TbufferBIP
                0x0000000000000000        0x4 /home/nico/opt/GNAT/2019-arm-elf/arm-eabi/lib/gnat/zfp-cortex-m0/adalib/libgnat.a(s-semiho.o)
 .text.system__semihosting__put__2
                0x0000000000000000       0x20 /home/nico/opt/GNAT/2019-arm-elf/arm-eabi/lib/gnat/zfp-cortex-m0/adalib/libgnat.a(s-semiho.o)
 .text.system__semihosting__get
                0x0000000000000000       0x10 /home/nico/opt/GNAT/2019-arm-elf/arm-eabi/lib/gnat/zfp-cortex-m0/adalib/libgnat.a(s-semiho.o)
 .data.system__semihosting_E
                0x0000000000000000        0x2 /home/nico/opt/GNAT/2019-arm-elf/arm-eabi/lib/gnat/zfp-cortex-m0/adalib/libgnat.a(s-semiho.o)
 .data          0x0000000000000000        0x0 /home/nico/opt/GNAT/2019-arm-elf/bin/../lib/gcc/arm-eabi/7.4.1/thumb/v6-m/libgcc.a(_divsi3.o)
 .bss           0x0000000000000000        0x0 /home/nico/opt/GNAT/2019-arm-elf/bin/../lib/gcc/arm-eabi/7.4.1/thumb/v6-m/libgcc.a(_divsi3.o)
 .data          0x0000000000000000        0x0 /home/nico/opt/GNAT/2019-arm-elf/bin/../lib/gcc/arm-eabi/7.4.1/thumb/v6-m/libgcc.a(_dvmd_tls.o)
 .bss           0x0000000000000000        0x0 /home/nico/opt/GNAT/2019-arm-elf/bin/../lib/gcc/arm-eabi/7.4.1/thumb/v6-m/libgcc.a(_dvmd_tls.o)
 .data          0x0000000000000000        0x0 /home/nico/opt/GNAT/2019-arm-elf/bin/../lib/gcc/arm-eabi/7.4.1/thumb/v6-m/libgcc.a(_arm_cmpsf2.o)
 .bss           0x0000000000000000        0x0 /home/nico/opt/GNAT/2019-arm-elf/bin/../lib/gcc/arm-eabi/7.4.1/thumb/v6-m/libgcc.a(_arm_cmpsf2.o)
 .data          0x0000000000000000        0x0 /home/nico/opt/GNAT/2019-arm-elf/bin/../lib/gcc/arm-eabi/7.4.1/thumb/v6-m/libgcc.a(_fixunssfsi.o)
 .bss           0x0000000000000000        0x0 /home/nico/opt/GNAT/2019-arm-elf/bin/../lib/gcc/arm-eabi/7.4.1/thumb/v6-m/libgcc.a(_fixunssfsi.o)
 .data          0x0000000000000000        0x0 /home/nico/opt/GNAT/2019-arm-elf/bin/../lib/gcc/arm-eabi/7.4.1/thumb/v6-m/libgcc.a(addsf3.o)
 .bss           0x0000000000000000        0x0 /home/nico/opt/GNAT/2019-arm-elf/bin/../lib/gcc/arm-eabi/7.4.1/thumb/v6-m/libgcc.a(addsf3.o)
 .data          0x0000000000000000        0x0 /home/nico/opt/GNAT/2019-arm-elf/bin/../lib/gcc/arm-eabi/7.4.1/thumb/v6-m/libgcc.a(divsf3.o)
 .bss           0x0000000000000000        0x0 /home/nico/opt/GNAT/2019-arm-elf/bin/../lib/gcc/arm-eabi/7.4.1/thumb/v6-m/libgcc.a(divsf3.o)
 .data          0x0000000000000000        0x0 /home/nico/opt/GNAT/2019-arm-elf/bin/../lib/gcc/arm-eabi/7.4.1/thumb/v6-m/libgcc.a(eqsf2.o)
 .bss           0x0000000000000000        0x0 /home/nico/opt/GNAT/2019-arm-elf/bin/../lib/gcc/arm-eabi/7.4.1/thumb/v6-m/libgcc.a(eqsf2.o)
 .data          0x0000000000000000        0x0 /home/nico/opt/GNAT/2019-arm-elf/bin/../lib/gcc/arm-eabi/7.4.1/thumb/v6-m/libgcc.a(gesf2.o)
 .bss           0x0000000000000000        0x0 /home/nico/opt/GNAT/2019-arm-elf/bin/../lib/gcc/arm-eabi/7.4.1/thumb/v6-m/libgcc.a(gesf2.o)
 .data          0x0000000000000000        0x0 /home/nico/opt/GNAT/2019-arm-elf/bin/../lib/gcc/arm-eabi/7.4.1/thumb/v6-m/libgcc.a(lesf2.o)
 .bss           0x0000000000000000        0x0 /home/nico/opt/GNAT/2019-arm-elf/bin/../lib/gcc/arm-eabi/7.4.1/thumb/v6-m/libgcc.a(lesf2.o)
 .data          0x0000000000000000        0x0 /home/nico/opt/GNAT/2019-arm-elf/bin/../lib/gcc/arm-eabi/7.4.1/thumb/v6-m/libgcc.a(mulsf3.o)
 .bss           0x0000000000000000        0x0 /home/nico/opt/GNAT/2019-arm-elf/bin/../lib/gcc/arm-eabi/7.4.1/thumb/v6-m/libgcc.a(mulsf3.o)
 .data          0x0000000000000000        0x0 /home/nico/opt/GNAT/2019-arm-elf/bin/../lib/gcc/arm-eabi/7.4.1/thumb/v6-m/libgcc.a(subsf3.o)
 .bss           0x0000000000000000        0x0 /home/nico/opt/GNAT/2019-arm-elf/bin/../lib/gcc/arm-eabi/7.4.1/thumb/v6-m/libgcc.a(subsf3.o)
 .data          0x0000000000000000        0x0 /home/nico/opt/GNAT/2019-arm-elf/bin/../lib/gcc/arm-eabi/7.4.1/thumb/v6-m/libgcc.a(unordsf2.o)
 .bss           0x0000000000000000        0x0 /home/nico/opt/GNAT/2019-arm-elf/bin/../lib/gcc/arm-eabi/7.4.1/thumb/v6-m/libgcc.a(unordsf2.o)
 .data          0x0000000000000000        0x0 /home/nico/opt/GNAT/2019-arm-elf/bin/../lib/gcc/arm-eabi/7.4.1/thumb/v6-m/libgcc.a(fixsfsi.o)
 .bss           0x0000000000000000        0x0 /home/nico/opt/GNAT/2019-arm-elf/bin/../lib/gcc/arm-eabi/7.4.1/thumb/v6-m/libgcc.a(fixsfsi.o)
 .data          0x0000000000000000        0x0 /home/nico/opt/GNAT/2019-arm-elf/bin/../lib/gcc/arm-eabi/7.4.1/thumb/v6-m/libgcc.a(floatsisf.o)
 .bss           0x0000000000000000        0x0 /home/nico/opt/GNAT/2019-arm-elf/bin/../lib/gcc/arm-eabi/7.4.1/thumb/v6-m/libgcc.a(floatsisf.o)
 .data          0x0000000000000000        0x0 /home/nico/opt/GNAT/2019-arm-elf/bin/../lib/gcc/arm-eabi/7.4.1/thumb/v6-m/libgcc.a(floatunsisf.o)
 .bss           0x0000000000000000        0x0 /home/nico/opt/GNAT/2019-arm-elf/bin/../lib/gcc/arm-eabi/7.4.1/thumb/v6-m/libgcc.a(floatunsisf.o)
 .data          0x0000000000000000        0x0 /home/nico/opt/GNAT/2019-arm-elf/bin/../lib/gcc/arm-eabi/7.4.1/thumb/v6-m/libgcc.a(_clzsi2.o)
 .bss           0x0000000000000000        0x0 /home/nico/opt/GNAT/2019-arm-elf/bin/../lib/gcc/arm-eabi/7.4.1/thumb/v6-m/libgcc.a(_clzsi2.o)

Memory Configuration

Name             Origin             Length             Attributes
flash            0x0000000000000000 0x0000000000040000 xr
ram              0x0000000020000000 0x0000000000004000 xrw
*default*        0x0000000000000000 0xffffffffffffffff

Linker script and memory map

LOAD main.o
LOAD b__main.o
LOAD /home/nico/Downloads/Real-Time-Systems/driving/obj/chore.o
LOAD /home/nico/Downloads/Real-Time-Systems/driving/obj/accelerometer.o
LOAD /home/nico/Downloads/Real-Time-Systems/driving/obj/nav.o
LOAD /home/nico/Downloads/Real-Time-Systems/driving/obj/qjs.o
LOAD /home/nico/Downloads/Real-Time-Systems/driving/obj/sensor.o
LOAD /home/nico/Downloads/Real-Time-Systems/Ada_Drivers_Library/boards/MicroBit/obj/zfp_lib_Debug/libada_drivers_library.a
LOAD /home/nico/opt/GNAT/2019-arm-elf/arm-eabi/lib/gnat/zfp-cortex-m0/adalib/libgnat.a
START GROUP
LOAD /home/nico/opt/GNAT/2019-arm-elf/bin/../lib/gcc/arm-eabi/7.4.1/thumb/v6-m/libgcc.a
END GROUP
                0x0000000000000000                __DYNAMIC = 0x0
                0x0000000000000800                _DEFAULT_STACK_SIZE = 0x800

.text           0x0000000000000000     0x8a68
 *(.vectors)
 .vectors       0x0000000000000000       0xc0 /home/nico/Downloads/Real-Time-Systems/Ada_Drivers_Library/boards/MicroBit/obj/zfp_lib_Debug/libada_drivers_library.a(crt0.o)
                0x0000000000000000                __vectors
 *(.text .text.* .gnu.linkonce.t*)
 .text._ada_main
                0x00000000000000c0      0x414 main.o
                0x00000000000000c0                _ada_main
 .text.ada_main__Tsec_default_sized_stacksBIP
                0x00000000000004d4       0x48 b__main.o
                0x00000000000004d4                ada_main__Tsec_default_sized_stacksBIP
 .text.adainit  0x000000000000051c      0x24c b__main.o
                0x000000000000051c                adainit
 .text.main     0x0000000000000768       0x1c b__main.o
                0x0000000000000768                main
 .text.ada_main___elabb
                0x0000000000000784       0x20 b__main.o
                0x0000000000000784                ada_main___elabb
 .text.chore___size
                0x00000000000007a4       0x18 /home/nico/Downloads/Real-Time-Systems/driving/obj/chore.o
                0x00000000000007a4                chore___size
 .text.chore__Oeq
                0x00000000000007bc       0x58 /home/nico/Downloads/Real-Time-Systems/driving/obj/chore.o
                0x00000000000007bc                chore__Oeq
 .text.chore___assign
                0x0000000000000814       0x28 /home/nico/Downloads/Real-Time-Systems/driving/obj/chore.o
                0x0000000000000814                chore___assign
 .text.chore__execute
                0x000000000000083c      0x124 /home/nico/Downloads/Real-Time-Systems/driving/obj/chore.o
                0x000000000000083c                chore__execute
 .text.accelerometer__initialize
                0x0000000000000960        0xc /home/nico/Downloads/Real-Time-Systems/driving/obj/accelerometer.o
                0x0000000000000960                accelerometer__initialize
 .text.accelerometer__get_y
                0x000000000000096c       0x20 /home/nico/Downloads/Real-Time-Systems/driving/obj/accelerometer.o
                0x000000000000096c                accelerometer__get_y
 .text.accelerometer__check_acc
                0x000000000000098c       0x54 /home/nico/Downloads/Real-Time-Systems/driving/obj/accelerometer.o
                0x000000000000098c                accelerometer__check_acc
 .text.nav__write_to_m1
                0x00000000000009e0       0x44 /home/nico/Downloads/Real-Time-Systems/driving/obj/nav.o
 .text.nav__write_to_m2
                0x0000000000000a24       0x44 /home/nico/Downloads/Real-Time-Systems/driving/obj/nav.o
 .text.nav__stop
                0x0000000000000a68       0x18 /home/nico/Downloads/Real-Time-Systems/driving/obj/nav.o
                0x0000000000000a68                nav__stop
 .text.nav__stop__2
                0x0000000000000a80       0x60 /home/nico/Downloads/Real-Time-Systems/driving/obj/nav.o
                0x0000000000000a80                nav__stop__2
 .text.nav__drive_forward__2
                0x0000000000000ae0       0x68 /home/nico/Downloads/Real-Time-Systems/driving/obj/nav.o
                0x0000000000000ae0                nav__drive_forward__2
 .text.nav__turn_left
                0x0000000000000b48       0x78 /home/nico/Downloads/Real-Time-Systems/driving/obj/nav.o
                0x0000000000000b48                nav__turn_left
 .text.nav__turn_right
                0x0000000000000bc0       0x78 /home/nico/Downloads/Real-Time-Systems/driving/obj/nav.o
                0x0000000000000bc0                nav__turn_right
 .text.nav__turn_around
                0x0000000000000c38       0x3c /home/nico/Downloads/Real-Time-Systems/driving/obj/nav.o
                0x0000000000000c38                nav__turn_around
 .text.qjs___size
                0x0000000000000c74       0x18 /home/nico/Downloads/Real-Time-Systems/driving/obj/qjs.o
                0x0000000000000c74                qjs___size
 .text.qjs__Oeq__E8s.4463
                0x0000000000000c8c       0x5c /home/nico/Downloads/Real-Time-Systems/driving/obj/qjs.o
 .text.qjs__Oeq
                0x0000000000000ce8       0x34 /home/nico/Downloads/Real-Time-Systems/driving/obj/qjs.o
                0x0000000000000ce8                qjs__Oeq
 .text.qjs___assign
                0x0000000000000d1c       0x2c /home/nico/Downloads/Real-Time-Systems/driving/obj/qjs.o
                0x0000000000000d1c                qjs___assign
 .text.qjs__run
                0x0000000000000d48      0x854 /home/nico/Downloads/Real-Time-Systems/driving/obj/qjs.o
                0x0000000000000d48                qjs__run
 .text.sensor__read__2
                0x000000000000159c      0x140 /home/nico/Downloads/Real-Time-Systems/driving/obj/sensor.o
                0x000000000000159c                sensor__read__2
 .text.sensor__sensor_straight
                0x00000000000016dc       0x64 /home/nico/Downloads/Real-Time-Systems/driving/obj/sensor.o
                0x00000000000016dc                sensor__sensor_straight
 .text.sensor__sensor_left
                0x0000000000001740       0x64 /home/nico/Downloads/Real-Time-Systems/driving/obj/sensor.o
                0x0000000000001740                sensor__sensor_left
 .text.sensor__sensor_right
                0x00000000000017a4       0x64 /home/nico/Downloads/Real-Time-Systems/driving/obj/sensor.o
                0x00000000000017a4                sensor__sensor_right
 .text.cortex_m__nvic__enable
                0x0000000000001808       0x20 /home/nico/Downloads/Real-Time-Systems/Ada_Drivers_Library/boards/MicroBit/obj/zfp_lib_Debug/libada_drivers_library.a(cortex_m-nvic.o)
                0x0000000000001808                cortex_m__nvic__enable
 *fill*         0x0000000000001828      0x1d8 
 .text          0x0000000000001a00       0x58 /home/nico/Downloads/Real-Time-Systems/Ada_Drivers_Library/boards/MicroBit/obj/zfp_lib_Debug/libada_drivers_library.a(crt0.o)
                0x0000000000001a00                __unknown_interrupt_handler
                0x0000000000001a00                __gnat_irq_trap
                0x0000000000001a02                __gnat_sv_call_trap
                0x0000000000001a04                __gnat_pend_sv_trap
                0x0000000000001a06                __gnat_sys_tick_trap
                0x0000000000001a0a                _start
 .text.microbit__accelerometer__initialized
                0x0000000000001a58       0x14 /home/nico/Downloads/Real-Time-Systems/Ada_Drivers_Library/boards/MicroBit/obj/zfp_lib_Debug/libada_drivers_library.a(microbit-accelerometer.o)
                0x0000000000001a58                microbit__accelerometer__initialized
 .text.microbit__accelerometer__initialize___postconditions.4238
                0x0000000000001a6c       0x3c /home/nico/Downloads/Real-Time-Systems/Ada_Drivers_Library/boards/MicroBit/obj/zfp_lib_Debug/libada_drivers_library.a(microbit-accelerometer.o)
 .text.microbit__accelerometer__initialize
                0x0000000000001aa8       0x4c /home/nico/Downloads/Real-Time-Systems/Ada_Drivers_Library/boards/MicroBit/obj/zfp_lib_Debug/libada_drivers_library.a(microbit-accelerometer.o)
                0x0000000000001aa8                microbit__accelerometer__initialize
 .text.microbit__accelerometer__data
                0x0000000000001af4       0x4c /home/nico/Downloads/Real-Time-Systems/Ada_Drivers_Library/boards/MicroBit/obj/zfp_lib_Debug/libada_drivers_library.a(microbit-accelerometer.o)
                0x0000000000001af4                microbit__accelerometer__data
 .text.microbit__accelerometer___elabb
                0x0000000000001b40       0x28 /home/nico/Downloads/Real-Time-Systems/Ada_Drivers_Library/boards/MicroBit/obj/zfp_lib_Debug/libada_drivers_library.a(microbit-accelerometer.o)
                0x0000000000001b40                microbit__accelerometer___elabb
 .text.microbit__console__put__2
                0x0000000000001b68       0xec /home/nico/Downloads/Real-Time-Systems/Ada_Drivers_Library/boards/MicroBit/obj/zfp_lib_Debug/libada_drivers_library.a(microbit-console.o)
                0x0000000000001b68                microbit__console__put__2
 .text.microbit__console__put_line
                0x0000000000001c54      0x178 /home/nico/Downloads/Real-Time-Systems/Ada_Drivers_Library/boards/MicroBit/obj/zfp_lib_Debug/libada_drivers_library.a(microbit-console.o)
                0x0000000000001c54                microbit__console__put_line
 .text.microbit__console__new_line
                0x0000000000001dcc       0x20 /home/nico/Downloads/Real-Time-Systems/Ada_Drivers_Library/boards/MicroBit/obj/zfp_lib_Debug/libada_drivers_library.a(microbit-console.o)
                0x0000000000001dcc                microbit__console__new_line
 .text.microbit__console___elabb
                0x0000000000001dec       0x34 /home/nico/Downloads/Real-Time-Systems/Ada_Drivers_Library/boards/MicroBit/obj/zfp_lib_Debug/libada_drivers_library.a(microbit-console.o)
                0x0000000000001dec                microbit__console___elabb
 .text.microbit__display__print_c
                0x0000000000001e20       0xf4 /home/nico/Downloads/Real-Time-Systems/Ada_Drivers_Library/boards/MicroBit/obj/zfp_lib_Debug/libada_drivers_library.a(microbit-display.o)
 .text.microbit__display__initialize
                0x0000000000001f14       0xcc /home/nico/Downloads/Real-Time-Systems/Ada_Drivers_Library/boards/MicroBit/obj/zfp_lib_Debug/libada_drivers_library.a(microbit-display.o)
 .text.microbit__display__tick_handler
                0x0000000000001fe0      0x210 /home/nico/Downloads/Real-Time-Systems/Ada_Drivers_Library/boards/MicroBit/obj/zfp_lib_Debug/libada_drivers_library.a(microbit-display.o)
 .text.microbit__display__update_animation
                0x00000000000021f0      0x12c /home/nico/Downloads/Real-Time-Systems/Ada_Drivers_Library/boards/MicroBit/obj/zfp_lib_Debug/libada_drivers_library.a(microbit-display.o)
 .text.microbit__display__shift_left
                0x000000000000231c       0x7c /home/nico/Downloads/Real-Time-Systems/Ada_Drivers_Library/boards/MicroBit/obj/zfp_lib_Debug/libada_drivers_library.a(microbit-display.o)
                0x000000000000231c                microbit__display__shift_left
 .text.microbit__display___elabb
                0x0000000000002398      0x118 /home/nico/Downloads/Real-Time-Systems/Ada_Drivers_Library/boards/MicroBit/obj/zfp_lib_Debug/libada_drivers_library.a(microbit-display.o)
                0x0000000000002398                microbit__display___elabb
 .text.microbit__i2c__initialized
                0x00000000000024b0       0x14 /home/nico/Downloads/Real-Time-Systems/Ada_Drivers_Library/boards/MicroBit/obj/zfp_lib_Debug/libada_drivers_library.a(microbit-i2c.o)
                0x00000000000024b0                microbit__i2c__initialized
 .text.microbit__i2c__initialize___postconditions.4403
                0x00000000000024c4       0x3c /home/nico/Downloads/Real-Time-Systems/Ada_Drivers_Library/boards/MicroBit/obj/zfp_lib_Debug/libada_drivers_library.a(microbit-i2c.o)
 .text.microbit__i2c__initialize
                0x0000000000002500       0x84 /home/nico/Downloads/Real-Time-Systems/Ada_Drivers_Library/boards/MicroBit/obj/zfp_lib_Debug/libada_drivers_library.a(microbit-i2c.o)
                0x0000000000002500                microbit__i2c__initialize
 .text.microbit__i2c__controller
                0x0000000000002584       0x14 /home/nico/Downloads/Real-Time-Systems/Ada_Drivers_Library/boards/MicroBit/obj/zfp_lib_Debug/libada_drivers_library.a(microbit-i2c.o)
                0x0000000000002584                microbit__i2c__controller
 .text.microbit__ios__supports
                0x0000000000002598       0xe8 /home/nico/Downloads/Real-Time-Systems/Ada_Drivers_Library/boards/MicroBit/obj/zfp_lib_Debug/libada_drivers_library.a(microbit-ios.o)
                0x0000000000002598                microbit__ios__supports
 .text.microbit__ios__pwm_statusIP
                0x0000000000002680       0x1c /home/nico/Downloads/Real-Time-Systems/Ada_Drivers_Library/boards/MicroBit/obj/zfp_lib_Debug/libada_drivers_library.a(microbit-ios.o)
                0x0000000000002680                microbit__ios__pwm_statusIP
 .text.microbit__ios__TpwmsBIP
                0x000000000000269c       0x48 /home/nico/Downloads/Real-Time-Systems/Ada_Drivers_Library/boards/MicroBit/obj/zfp_lib_Debug/libada_drivers_library.a(microbit-ios.o)
                0x000000000000269c                microbit__ios__TpwmsBIP
 .text.microbit__ios__to_compare_value
                0x00000000000026e4      0x1a4 /home/nico/Downloads/Real-Time-Systems/Ada_Drivers_Library/boards/MicroBit/obj/zfp_lib_Debug/libada_drivers_library.a(microbit-ios.o)
 .text.microbit__ios__allocate_pwm
                0x0000000000002888      0x104 /home/nico/Downloads/Real-Time-Systems/Ada_Drivers_Library/boards/MicroBit/obj/zfp_lib_Debug/libada_drivers_library.a(microbit-ios.o)
 .text.microbit__ios__deallocate_pwm___postconditions.4859
                0x000000000000298c       0x38 /home/nico/Downloads/Real-Time-Systems/Ada_Drivers_Library/boards/MicroBit/obj/zfp_lib_Debug/libada_drivers_library.a(microbit-ios.o)
 .text.microbit__ios__deallocate_pwm
                0x00000000000029c4       0xe8 /home/nico/Downloads/Real-Time-Systems/Ada_Drivers_Library/boards/MicroBit/obj/zfp_lib_Debug/libada_drivers_library.a(microbit-ios.o)
 .text.microbit__ios__configure_ppi
                0x0000000000002aac       0xa8 /home/nico/Downloads/Real-Time-Systems/Ada_Drivers_Library/boards/MicroBit/obj/zfp_lib_Debug/libada_drivers_library.a(microbit-ios.o)
 .text.microbit__ios__configure_gpiote
                0x0000000000002b54       0x4c /home/nico/Downloads/Real-Time-Systems/Ada_Drivers_Library/boards/MicroBit/obj/zfp_lib_Debug/libada_drivers_library.a(microbit-ios.o)
 .text.microbit__ios__pwm_timer_handler
                0x0000000000002ba0       0x68 /home/nico/Downloads/Real-Time-Systems/Ada_Drivers_Library/boards/MicroBit/obj/zfp_lib_Debug/libada_drivers_library.a(microbit-ios.o)
 .text.microbit__ios__init_pwm_timer
                0x0000000000002c08       0xe4 /home/nico/Downloads/Real-Time-Systems/Ada_Drivers_Library/boards/MicroBit/obj/zfp_lib_Debug/libada_drivers_library.a(microbit-ios.o)
 .text.microbit__ios__set
                0x0000000000002cec      0x11c /home/nico/Downloads/Real-Time-Systems/Ada_Drivers_Library/boards/MicroBit/obj/zfp_lib_Debug/libada_drivers_library.a(microbit-ios.o)
                0x0000000000002cec                microbit__ios__set
 .text.microbit__ios__set__2
                0x0000000000002e08      0x104 /home/nico/Downloads/Real-Time-Systems/Ada_Drivers_Library/boards/MicroBit/obj/zfp_lib_Debug/libada_drivers_library.a(microbit-ios.o)
                0x0000000000002e08                microbit__ios__set__2
 .text.microbit__ios__set_analog_period_us
                0x0000000000002f0c       0x64 /home/nico/Downloads/Real-Time-Systems/Ada_Drivers_Library/boards/MicroBit/obj/zfp_lib_Debug/libada_drivers_library.a(microbit-ios.o)
                0x0000000000002f0c                microbit__ios__set_analog_period_us
 .text.microbit__ios__write
                0x0000000000002f70      0x364 /home/nico/Downloads/Real-Time-Systems/Ada_Drivers_Library/boards/MicroBit/obj/zfp_lib_Debug/libada_drivers_library.a(microbit-ios.o)
                0x0000000000002f70                microbit__ios__write
 .text.microbit__ios__has_pwm
                0x00000000000032d4       0x2c /home/nico/Downloads/Real-Time-Systems/Ada_Drivers_Library/boards/MicroBit/obj/zfp_lib_Debug/libada_drivers_library.a(microbit-ios.o)
 .text.microbit__ios___elabb
                0x0000000000003300       0x30 /home/nico/Downloads/Real-Time-Systems/Ada_Drivers_Library/boards/MicroBit/obj/zfp_lib_Debug/libada_drivers_library.a(microbit-ios.o)
                0x0000000000003300                microbit__ios___elabb
 .text.microbit__ios___elabs
                0x0000000000003330      0x1c4 /home/nico/Downloads/Real-Time-Systems/Ada_Drivers_Library/boards/MicroBit/obj/zfp_lib_Debug/libada_drivers_library.a(microbit-ios.o)
                0x0000000000003330                microbit__ios___elabs
 .text.microbit__servos__servo_pin_idPredicate
                0x00000000000034f4       0x24 /home/nico/Downloads/Real-Time-Systems/Ada_Drivers_Library/boards/MicroBit/obj/zfp_lib_Debug/libada_drivers_library.a(microbit-servos.o)
                0x00000000000034f4                microbit__servos__servo_pin_idPredicate
 .text.microbit__servos__go
                0x0000000000003518       0x5c /home/nico/Downloads/Real-Time-Systems/Ada_Drivers_Library/boards/MicroBit/obj/zfp_lib_Debug/libada_drivers_library.a(microbit-servos.o)
                0x0000000000003518                microbit__servos__go
 .text.microbit__servos__to_pwm
                0x0000000000003574       0x64 /home/nico/Downloads/Real-Time-Systems/Ada_Drivers_Library/boards/MicroBit/obj/zfp_lib_Debug/libada_drivers_library.a(microbit-servos.o)
 .text.microbit__time__mb_delaysIP
                0x00000000000035d8       0x28 /home/nico/Downloads/Real-Time-Systems/Ada_Drivers_Library/boards/MicroBit/obj/zfp_lib_Debug/libada_drivers_library.a(microbit-time.o)
                0x00000000000035d8                microbit__time__mb_delaysIP
 .text.microbit__time___size__2
                0x0000000000003600       0x18 /home/nico/Downloads/Real-Time-Systems/Ada_Drivers_Library/boards/MicroBit/obj/zfp_lib_Debug/libada_drivers_library.a(microbit-time.o)
                0x0000000000003600                microbit__time___size__2
 .text.microbit__time__Oeq
                0x0000000000003618       0x14 /home/nico/Downloads/Real-Time-Systems/Ada_Drivers_Library/boards/MicroBit/obj/zfp_lib_Debug/libada_drivers_library.a(microbit-time.o)
                0x0000000000003618                microbit__time__Oeq
 .text.microbit__time___assign
                0x000000000000362c       0x20 /home/nico/Downloads/Real-Time-Systems/Ada_Drivers_Library/boards/MicroBit/obj/zfp_lib_Debug/libada_drivers_library.a(microbit-time.o)
                0x000000000000362c                microbit__time___assign
 .text.microbit__time__initialize
                0x000000000000364c       0x8c /home/nico/Downloads/Real-Time-Systems/Ada_Drivers_Library/boards/MicroBit/obj/zfp_lib_Debug/libada_drivers_library.a(microbit-time.o)
 .text.microbit__time__update_clock
                0x00000000000036d8       0x20 /home/nico/Downloads/Real-Time-Systems/Ada_Drivers_Library/boards/MicroBit/obj/zfp_lib_Debug/libada_drivers_library.a(microbit-time.o)
 .text.microbit__time__rtc1_irqhandler
                0x00000000000036f8       0x94 /home/nico/Downloads/Real-Time-Systems/Ada_Drivers_Library/boards/MicroBit/obj/zfp_lib_Debug/libada_drivers_library.a(microbit-time.o)
 .text.microbit__time__clock
                0x000000000000378c       0x18 /home/nico/Downloads/Real-Time-Systems/Ada_Drivers_Library/boards/MicroBit/obj/zfp_lib_Debug/libada_drivers_library.a(microbit-time.o)
                0x000000000000378c                microbit__time__clock
 .text.microbit__time__delay_ms
                0x00000000000037a4       0x44 /home/nico/Downloads/Real-Time-Systems/Ada_Drivers_Library/boards/MicroBit/obj/zfp_lib_Debug/libada_drivers_library.a(microbit-time.o)
                0x00000000000037a4                microbit__time__delay_ms
 .text.microbit__time__tick_subscriber
                0x00000000000037e8       0x4c /home/nico/Downloads/Real-Time-Systems/Ada_Drivers_Library/boards/MicroBit/obj/zfp_lib_Debug/libada_drivers_library.a(microbit-time.o)
                0x00000000000037e8                microbit__time__tick_subscriber
 .text.microbit__time__tick_subscribe___postconditions.5043
                0x0000000000003834       0x54 /home/nico/Downloads/Real-Time-Systems/Ada_Drivers_Library/boards/MicroBit/obj/zfp_lib_Debug/libada_drivers_library.a(microbit-time.o)
 .text.microbit__time__tick_subscribe
                0x0000000000003888       0xa4 /home/nico/Downloads/Real-Time-Systems/Ada_Drivers_Library/boards/MicroBit/obj/zfp_lib_Debug/libada_drivers_library.a(microbit-time.o)
                0x0000000000003888                microbit__time__tick_subscribe
 .text.microbit__time__hal_delay
                0x000000000000392c       0x14 /home/nico/Downloads/Real-Time-Systems/Ada_Drivers_Library/boards/MicroBit/obj/zfp_lib_Debug/libada_drivers_library.a(microbit-time.o)
                0x000000000000392c                microbit__time__hal_delay
 .text.microbit__time__delay_microseconds__2
                0x0000000000003940       0x48 /home/nico/Downloads/Real-Time-Systems/Ada_Drivers_Library/boards/MicroBit/obj/zfp_lib_Debug/libada_drivers_library.a(microbit-time.o)
                0x0000000000003940                microbit__time__delay_microseconds__2
 .text.microbit__time__delay_milliseconds__2
                0x0000000000003988       0x34 /home/nico/Downloads/Real-Time-Systems/Ada_Drivers_Library/boards/MicroBit/obj/zfp_lib_Debug/libada_drivers_library.a(microbit-time.o)
                0x0000000000003988                microbit__time__delay_milliseconds__2
 .text.microbit__time__delay_seconds__2
                0x00000000000039bc       0x60 /home/nico/Downloads/Real-Time-Systems/Ada_Drivers_Library/boards/MicroBit/obj/zfp_lib_Debug/libada_drivers_library.a(microbit-time.o)
                0x00000000000039bc                microbit__time__delay_seconds__2
 .text.microbit__time___elabb
                0x0000000000003a1c       0x2c /home/nico/Downloads/Real-Time-Systems/Ada_Drivers_Library/boards/MicroBit/obj/zfp_lib_Debug/libada_drivers_library.a(microbit-time.o)
                0x0000000000003a1c                microbit__time___elabb
 .text.mma8653__ctrl_reg1_registerIP
                0x0000000000003a48       0x44 /home/nico/Downloads/Real-Time-Systems/Ada_Drivers_Library/boards/MicroBit/obj/zfp_lib_Debug/libada_drivers_library.a(mma8653.o)
                0x0000000000003a48                mma8653__ctrl_reg1_registerIP
 .text.mma8653__ctrl_reg2_registerIP
                0x0000000000003a8c       0x50 /home/nico/Downloads/Real-Time-Systems/Ada_Drivers_Library/boards/MicroBit/obj/zfp_lib_Debug/libada_drivers_library.a(mma8653.o)
                0x0000000000003a8c                mma8653__ctrl_reg2_registerIP
 .text.mma8653__mma8653_accelerometerIP
                0x0000000000003adc       0x2c /home/nico/Downloads/Real-Time-Systems/Ada_Drivers_Library/boards/MicroBit/obj/zfp_lib_Debug/libada_drivers_library.a(mma8653.o)
                0x0000000000003adc                mma8653__mma8653_accelerometerIP
 .text.mma8653___size
                0x0000000000003b08       0x18 /home/nico/Downloads/Real-Time-Systems/Ada_Drivers_Library/boards/MicroBit/obj/zfp_lib_Debug/libada_drivers_library.a(mma8653.o)
                0x0000000000003b08                mma8653___size
 .text.mma8653__read_register
                0x0000000000003b20       0x7c /home/nico/Downloads/Real-Time-Systems/Ada_Drivers_Library/boards/MicroBit/obj/zfp_lib_Debug/libada_drivers_library.a(mma8653.o)
 .text.mma8653__write_register
                0x0000000000003b9c       0x84 /home/nico/Downloads/Real-Time-Systems/Ada_Drivers_Library/boards/MicroBit/obj/zfp_lib_Debug/libada_drivers_library.a(mma8653.o)
 .text.mma8653__configure
                0x0000000000003c20       0xd0 /home/nico/Downloads/Real-Time-Systems/Ada_Drivers_Library/boards/MicroBit/obj/zfp_lib_Debug/libada_drivers_library.a(mma8653.o)
                0x0000000000003c20                mma8653__configure
 .text.mma8653__check_device_id
                0x0000000000003cf0       0x28 /home/nico/Downloads/Real-Time-Systems/Ada_Drivers_Library/boards/MicroBit/obj/zfp_lib_Debug/libada_drivers_library.a(mma8653.o)
                0x0000000000003cf0                mma8653__check_device_id
 .text.mma8653__read_data__convert.4613
                0x0000000000003d18       0x58 /home/nico/Downloads/Real-Time-Systems/Ada_Drivers_Library/boards/MicroBit/obj/zfp_lib_Debug/libada_drivers_library.a(mma8653.o)
 .text.mma8653__read_data
                0x0000000000003d70       0xd8 /home/nico/Downloads/Real-Time-Systems/Ada_Drivers_Library/boards/MicroBit/obj/zfp_lib_Debug/libada_drivers_library.a(mma8653.o)
                0x0000000000003d70                mma8653__read_data
 .text.nrf51__clock__set_low_freq_source
                0x0000000000003e48       0x78 /home/nico/Downloads/Real-Time-Systems/Ada_Drivers_Library/boards/MicroBit/obj/zfp_lib_Debug/libada_drivers_library.a(nrf51-clock.o)
                0x0000000000003e48                nrf51__clock__set_low_freq_source
 .text.nrf51__clock__low_freq_running
                0x0000000000003ec0       0x2c /home/nico/Downloads/Real-Time-Systems/Ada_Drivers_Library/boards/MicroBit/obj/zfp_lib_Debug/libada_drivers_library.a(nrf51-clock.o)
                0x0000000000003ec0                nrf51__clock__low_freq_running
 .text.nrf51__clock__start_low_freq
                0x0000000000003eec       0x14 /home/nico/Downloads/Real-Time-Systems/Ada_Drivers_Library/boards/MicroBit/obj/zfp_lib_Debug/libada_drivers_library.a(nrf51-clock.o)
                0x0000000000003eec                nrf51__clock__start_low_freq
 .text.nrf51__device___elabs
                0x0000000000003f00      0x2d0 /home/nico/Downloads/Real-Time-Systems/Ada_Drivers_Library/boards/MicroBit/obj/zfp_lib_Debug/libada_drivers_library.a(nrf51-device.o)
                0x0000000000003f00                nrf51__device___elabs
 .text.nrf51__events__enable_interrupt
                0x00000000000041d0       0x7c /home/nico/Downloads/Real-Time-Systems/Ada_Drivers_Library/boards/MicroBit/obj/zfp_lib_Debug/libada_drivers_library.a(nrf51-events.o)
                0x00000000000041d0                nrf51__events__enable_interrupt
 .text.nrf51__events__clear
                0x000000000000424c       0x30 /home/nico/Downloads/Real-Time-Systems/Ada_Drivers_Library/boards/MicroBit/obj/zfp_lib_Debug/libada_drivers_library.a(nrf51-events.o)
                0x000000000000424c                nrf51__events__clear
 .text.nrf51__events__get_address__2
                0x000000000000427c       0x14 /home/nico/Downloads/Real-Time-Systems/Ada_Drivers_Library/boards/MicroBit/obj/zfp_lib_Debug/libada_drivers_library.a(nrf51-events.o)
                0x000000000000427c                nrf51__events__get_address__2
 .text.nrf51__gpio__tasks_and_events__disable
                0x0000000000004290       0x44 /home/nico/Downloads/Real-Time-Systems/Ada_Drivers_Library/boards/MicroBit/obj/zfp_lib_Debug/libada_drivers_library.a(nrf51-gpio-tasks_and_events.o)
                0x0000000000004290                nrf51__gpio__tasks_and_events__disable
 .text.nrf51__gpio__tasks_and_events__enable_task
                0x00000000000042d4      0x17c /home/nico/Downloads/Real-Time-Systems/Ada_Drivers_Library/boards/MicroBit/obj/zfp_lib_Debug/libada_drivers_library.a(nrf51-gpio-tasks_and_events.o)
                0x00000000000042d4                nrf51__gpio__tasks_and_events__enable_task
 .text.nrf51__gpio__tasks_and_events__out_task
                0x0000000000004450       0x28 /home/nico/Downloads/Real-Time-Systems/Ada_Drivers_Library/boards/MicroBit/obj/zfp_lib_Debug/libada_drivers_library.a(nrf51-gpio-tasks_and_events.o)
                0x0000000000004450                nrf51__gpio__tasks_and_events__out_task
 .text.nrf51__gpio__gpio_configurationIP
                0x0000000000004478       0x20 /home/nico/Downloads/Real-Time-Systems/Ada_Drivers_Library/boards/MicroBit/obj/zfp_lib_Debug/libada_drivers_library.a(nrf51-gpio.o)
                0x0000000000004478                nrf51__gpio__gpio_configurationIP
 .text.nrf51__gpio___size
                0x0000000000004498       0x18 /home/nico/Downloads/Real-Time-Systems/Ada_Drivers_Library/boards/MicroBit/obj/zfp_lib_Debug/libada_drivers_library.a(nrf51-gpio.o)
                0x0000000000004498                nrf51__gpio___size
 .text.nrf51__gpio__Oeq
                0x00000000000044b0       0x24 /home/nico/Downloads/Real-Time-Systems/Ada_Drivers_Library/boards/MicroBit/obj/zfp_lib_Debug/libada_drivers_library.a(nrf51-gpio.o)
                0x00000000000044b0                nrf51__gpio__Oeq
 .text.nrf51__gpio___assign
                0x00000000000044d4       0x20 /home/nico/Downloads/Real-Time-Systems/Ada_Drivers_Library/boards/MicroBit/obj/zfp_lib_Debug/libada_drivers_library.a(nrf51-gpio.o)
                0x00000000000044d4                nrf51__gpio___assign
 .text.nrf51__gpio__support
                0x00000000000044f4       0x30 /home/nico/Downloads/Real-Time-Systems/Ada_Drivers_Library/boards/MicroBit/obj/zfp_lib_Debug/libada_drivers_library.a(nrf51-gpio.o)
                0x00000000000044f4                nrf51__gpio__support
 .text.nrf51__gpio__mode
                0x0000000000004524       0x58 /home/nico/Downloads/Real-Time-Systems/Ada_Drivers_Library/boards/MicroBit/obj/zfp_lib_Debug/libada_drivers_library.a(nrf51-gpio.o)
                0x0000000000004524                nrf51__gpio__mode
 .text.nrf51__gpio__set_mode
                0x000000000000457c      0x11c /home/nico/Downloads/Real-Time-Systems/Ada_Drivers_Library/boards/MicroBit/obj/zfp_lib_Debug/libada_drivers_library.a(nrf51-gpio.o)
                0x000000000000457c                nrf51__gpio__set_mode
 .text.nrf51__gpio__set
                0x0000000000004698       0x3c /home/nico/Downloads/Real-Time-Systems/Ada_Drivers_Library/boards/MicroBit/obj/zfp_lib_Debug/libada_drivers_library.a(nrf51-gpio.o)
                0x0000000000004698                nrf51__gpio__set
 .text.nrf51__gpio__pull_resistor
                0x00000000000046d4       0x5c /home/nico/Downloads/Real-Time-Systems/Ada_Drivers_Library/boards/MicroBit/obj/zfp_lib_Debug/libada_drivers_library.a(nrf51-gpio.o)
                0x00000000000046d4                nrf51__gpio__pull_resistor
 .text.nrf51__gpio__set_pull_resistor
                0x0000000000004730       0xd0 /home/nico/Downloads/Real-Time-Systems/Ada_Drivers_Library/boards/MicroBit/obj/zfp_lib_Debug/libada_drivers_library.a(nrf51-gpio.o)
                0x0000000000004730                nrf51__gpio__set_pull_resistor
 .text.nrf51__gpio__set__2
                0x0000000000004800       0x64 /home/nico/Downloads/Real-Time-Systems/Ada_Drivers_Library/boards/MicroBit/obj/zfp_lib_Debug/libada_drivers_library.a(nrf51-gpio.o)
                0x0000000000004800                nrf51__gpio__set__2
 .text.nrf51__gpio__clear
                0x0000000000004864       0x64 /home/nico/Downloads/Real-Time-Systems/Ada_Drivers_Library/boards/MicroBit/obj/zfp_lib_Debug/libada_drivers_library.a(nrf51-gpio.o)
                0x0000000000004864                nrf51__gpio__clear
 .text.nrf51__gpio__toggle
                0x00000000000048c8       0x54 /home/nico/Downloads/Real-Time-Systems/Ada_Drivers_Library/boards/MicroBit/obj/zfp_lib_Debug/libada_drivers_library.a(nrf51-gpio.o)
                0x00000000000048c8                nrf51__gpio__toggle
 .text.nrf51__gpio__configure_io
                0x000000000000491c      0x288 /home/nico/Downloads/Real-Time-Systems/Ada_Drivers_Library/boards/MicroBit/obj/zfp_lib_Debug/libada_drivers_library.a(nrf51-gpio.o)
                0x000000000000491c                nrf51__gpio__configure_io
 .text.nrf51__interrupts__enable
                0x0000000000004ba4       0x1c /home/nico/Downloads/Real-Time-Systems/Ada_Drivers_Library/boards/MicroBit/obj/zfp_lib_Debug/libada_drivers_library.a(nrf51-interrupts.o)
                0x0000000000004ba4                nrf51__interrupts__enable
 .text.nrf51__interrupts__register
                0x0000000000004bc0       0x3c /home/nico/Downloads/Real-Time-Systems/Ada_Drivers_Library/boards/MicroBit/obj/zfp_lib_Debug/libada_drivers_library.a(nrf51-interrupts.o)
                0x0000000000004bc0                nrf51__interrupts__register
 .text.__adl_irq_handler
                0x0000000000004bfc       0x6c /home/nico/Downloads/Real-Time-Systems/Ada_Drivers_Library/boards/MicroBit/obj/zfp_lib_Debug/libada_drivers_library.a(nrf51-interrupts.o)
                0x0000000000004bfc                __adl_irq_handler
 .text.nrf51__interrupts___elabb
                0x0000000000004c68       0x1c /home/nico/Downloads/Real-Time-Systems/Ada_Drivers_Library/boards/MicroBit/obj/zfp_lib_Debug/libada_drivers_library.a(nrf51-interrupts.o)
                0x0000000000004c68                nrf51__interrupts___elabb
 .text.nrf51__ppi__configure
                0x0000000000004c84       0x6c /home/nico/Downloads/Real-Time-Systems/Ada_Drivers_Library/boards/MicroBit/obj/zfp_lib_Debug/libada_drivers_library.a(nrf51-ppi.o)
                0x0000000000004c84                nrf51__ppi__configure
 .text.nrf51__ppi__enable_channel
                0x0000000000004cf0       0x70 /home/nico/Downloads/Real-Time-Systems/Ada_Drivers_Library/boards/MicroBit/obj/zfp_lib_Debug/libada_drivers_library.a(nrf51-ppi.o)
                0x0000000000004cf0                nrf51__ppi__enable_channel
 .text.nrf51__rtc__real_time_counterIP
                0x0000000000004d60       0x18 /home/nico/Downloads/Real-Time-Systems/Ada_Drivers_Library/boards/MicroBit/obj/zfp_lib_Debug/libada_drivers_library.a(nrf51-rtc.o)
                0x0000000000004d60                nrf51__rtc__real_time_counterIP
 .text.nrf51__rtc__start
                0x0000000000004d78       0x14 /home/nico/Downloads/Real-Time-Systems/Ada_Drivers_Library/boards/MicroBit/obj/zfp_lib_Debug/libada_drivers_library.a(nrf51-rtc.o)
                0x0000000000004d78                nrf51__rtc__start
 .text.nrf51__rtc__stop
                0x0000000000004d8c       0x14 /home/nico/Downloads/Real-Time-Systems/Ada_Drivers_Library/boards/MicroBit/obj/zfp_lib_Debug/libada_drivers_library.a(nrf51-rtc.o)
                0x0000000000004d8c                nrf51__rtc__stop
 .text.nrf51__rtc__clear
                0x0000000000004da0       0x14 /home/nico/Downloads/Real-Time-Systems/Ada_Drivers_Library/boards/MicroBit/obj/zfp_lib_Debug/libada_drivers_library.a(nrf51-rtc.o)
                0x0000000000004da0                nrf51__rtc__clear
 .text.nrf51__rtc__set_prescaler
                0x0000000000004db4       0x44 /home/nico/Downloads/Real-Time-Systems/Ada_Drivers_Library/boards/MicroBit/obj/zfp_lib_Debug/libada_drivers_library.a(nrf51-rtc.o)
                0x0000000000004db4                nrf51__rtc__set_prescaler
 .text.nrf51__rtc__set_compare
                0x0000000000004df8       0x50 /home/nico/Downloads/Real-Time-Systems/Ada_Drivers_Library/boards/MicroBit/obj/zfp_lib_Debug/libada_drivers_library.a(nrf51-rtc.o)
                0x0000000000004df8                nrf51__rtc__set_compare
 .text.nrf51__rtc__enable_event
                0x0000000000004e48      0x21c /home/nico/Downloads/Real-Time-Systems/Ada_Drivers_Library/boards/MicroBit/obj/zfp_lib_Debug/libada_drivers_library.a(nrf51-rtc.o)
                0x0000000000004e48                nrf51__rtc__enable_event
 .text.nrf51__spi_master__spi_masterIP
                0x0000000000005064       0x2c /home/nico/Downloads/Real-Time-Systems/Ada_Drivers_Library/boards/MicroBit/obj/zfp_lib_Debug/libada_drivers_library.a(nrf51-spi_master.o)
                0x0000000000005064                nrf51__spi_master__spi_masterIP
 .text.nrf51__spi_master___size__2
                0x0000000000005090       0x18 /home/nico/Downloads/Real-Time-Systems/Ada_Drivers_Library/boards/MicroBit/obj/zfp_lib_Debug/libada_drivers_library.a(nrf51-spi_master.o)
                0x0000000000005090                nrf51__spi_master___size__2
 .text.nrf51__spi_master__Oeq
                0x00000000000050a8       0x24 /home/nico/Downloads/Real-Time-Systems/Ada_Drivers_Library/boards/MicroBit/obj/zfp_lib_Debug/libada_drivers_library.a(nrf51-spi_master.o)
                0x00000000000050a8                nrf51__spi_master__Oeq
 .text.nrf51__spi_master___assign
                0x00000000000050cc       0x3c /home/nico/Downloads/Real-Time-Systems/Ada_Drivers_Library/boards/MicroBit/obj/zfp_lib_Debug/libada_drivers_library.a(nrf51-spi_master.o)
                0x00000000000050cc                nrf51__spi_master___assign
 .text.nrf51__spi_master__enable___postconditions.4672
                0x0000000000005108       0x40 /home/nico/Downloads/Real-Time-Systems/Ada_Drivers_Library/boards/MicroBit/obj/zfp_lib_Debug/libada_drivers_library.a(nrf51-spi_master.o)
 .text.nrf51__spi_master__enable
                0x0000000000005148       0x54 /home/nico/Downloads/Real-Time-Systems/Ada_Drivers_Library/boards/MicroBit/obj/zfp_lib_Debug/libada_drivers_library.a(nrf51-spi_master.o)
                0x0000000000005148                nrf51__spi_master__enable
 .text.nrf51__spi_master__disable___postconditions.4679
                0x000000000000519c       0x38 /home/nico/Downloads/Real-Time-Systems/Ada_Drivers_Library/boards/MicroBit/obj/zfp_lib_Debug/libada_drivers_library.a(nrf51-spi_master.o)
 .text.nrf51__spi_master__disable
                0x00000000000051d4       0x50 /home/nico/Downloads/Real-Time-Systems/Ada_Drivers_Library/boards/MicroBit/obj/zfp_lib_Debug/libada_drivers_library.a(nrf51-spi_master.o)
                0x00000000000051d4                nrf51__spi_master__disable
 .text.nrf51__spi_master__enabled
                0x0000000000005224       0x30 /home/nico/Downloads/Real-Time-Systems/Ada_Drivers_Library/boards/MicroBit/obj/zfp_lib_Debug/libada_drivers_library.a(nrf51-spi_master.o)
                0x0000000000005224                nrf51__spi_master__enabled
 .text.nrf51__spi_master__configure
                0x0000000000005254      0x1c0 /home/nico/Downloads/Real-Time-Systems/Ada_Drivers_Library/boards/MicroBit/obj/zfp_lib_Debug/libada_drivers_library.a(nrf51-spi_master.o)
                0x0000000000005254                nrf51__spi_master__configure
 .text.nrf51__spi_master__disconnect
                0x0000000000005414       0x60 /home/nico/Downloads/Real-Time-Systems/Ada_Drivers_Library/boards/MicroBit/obj/zfp_lib_Debug/libada_drivers_library.a(nrf51-spi_master.o)
                0x0000000000005414                nrf51__spi_master__disconnect
 .text.nrf51__spi_master__data_size
                0x0000000000005474       0x14 /home/nico/Downloads/Real-Time-Systems/Ada_Drivers_Library/boards/MicroBit/obj/zfp_lib_Debug/libada_drivers_library.a(nrf51-spi_master.o)
                0x0000000000005474                nrf51__spi_master__data_size
 .text.nrf51__spi_master__transmit
                0x0000000000005488      0x10c /home/nico/Downloads/Real-Time-Systems/Ada_Drivers_Library/boards/MicroBit/obj/zfp_lib_Debug/libada_drivers_library.a(nrf51-spi_master.o)
                0x0000000000005488                nrf51__spi_master__transmit
 .text.nrf51__spi_master__transmit__2
                0x0000000000005594      0x358 /home/nico/Downloads/Real-Time-Systems/Ada_Drivers_Library/boards/MicroBit/obj/zfp_lib_Debug/libada_drivers_library.a(nrf51-spi_master.o)
                0x0000000000005594                nrf51__spi_master__transmit__2
 .text.nrf51__spi_master__receive
                0x00000000000058ec       0xf4 /home/nico/Downloads/Real-Time-Systems/Ada_Drivers_Library/boards/MicroBit/obj/zfp_lib_Debug/libada_drivers_library.a(nrf51-spi_master.o)
                0x00000000000058ec                nrf51__spi_master(long double,...)(char,...)(int, void,...)
 .text.nrf51__spi_master__receive__2
                0x00000000000059e0      0x2b8 /home/nico/Downloads/Real-Time-Systems/Ada_Drivers_Library/boards/MicroBit/obj/zfp_lib_Debug/libada_drivers_library.a(nrf51-spi_master.o)
                0x00000000000059e0                nrf51__spi_master__receive__2
 .text.nrf51__tasks__trigger
                0x0000000000005c98       0x30 /home/nico/Downloads/Real-Time-Systems/Ada_Drivers_Library/boards/MicroBit/obj/zfp_lib_Debug/libada_drivers_library.a(nrf51-tasks.o)
                0x0000000000005c98                nrf51__tasks__trigger
 .text.nrf51__tasks__get_address__2
                0x0000000000005cc8       0x14 /home/nico/Downloads/Real-Time-Systems/Ada_Drivers_Library/boards/MicroBit/obj/zfp_lib_Debug/libada_drivers_library.a(nrf51-tasks.o)
                0x0000000000005cc8                nrf51__tasks__get_address__2
 .text.nrf51__timers__timerIP
                0x0000000000005cdc       0x2c /home/nico/Downloads/Real-Time-Systems/Ada_Drivers_Library/boards/MicroBit/obj/zfp_lib_Debug/libada_drivers_library.a(nrf51-timers.o)
                0x0000000000005cdc                nrf51__timers__timerIP
 .text.nrf51__timers___size
                0x0000000000005d08       0x18 /home/nico/Downloads/Real-Time-Systems/Ada_Drivers_Library/boards/MicroBit/obj/zfp_lib_Debug/libada_drivers_library.a(nrf51-timers.o)
                0x0000000000005d08                nrf51__timers___size
 .text.nrf51__timers__Oeq
                0x0000000000005d20       0x24 /home/nico/Downloads/Real-Time-Systems/Ada_Drivers_Library/boards/MicroBit/obj/zfp_lib_Debug/libada_drivers_library.a(nrf51-timers.o)
                0x0000000000005d20                nrf51__timers__Oeq
 .text.nrf51__timers___assign
                0x0000000000005d44       0x3c /home/nico/Downloads/Real-Time-Systems/Ada_Drivers_Library/boards/MicroBit/obj/zfp_lib_Debug/libada_drivers_library.a(nrf51-timers.o)
                0x0000000000005d44                nrf51__timers___assign
 .text.nrf51__timers__start
                0x0000000000005d80       0x18 /home/nico/Downloads/Real-Time-Systems/Ada_Drivers_Library/boards/MicroBit/obj/zfp_lib_Debug/libada_drivers_library.a(nrf51-timers.o)
                0x0000000000005d80                nrf51__timers__start
 .text.nrf51__timers__stop
                0x0000000000005d98       0x18 /home/nico/Downloads/Real-Time-Systems/Ada_Drivers_Library/boards/MicroBit/obj/zfp_lib_Debug/libada_drivers_library.a(nrf51-timers.o)
                0x0000000000005d98                nrf51__timers__stop
 .text.nrf51__timers__clear
                0x0000000000005db0       0x18 /home/nico/Downloads/Real-Time-Systems/Ada_Drivers_Library/boards/MicroBit/obj/zfp_lib_Debug/libada_drivers_library.a(nrf51-timers.o)
                0x0000000000005db0                nrf51__timers__clear
 .text.nrf51__timers__set_prescaler
                0x0000000000005dc8       0x48 /home/nico/Downloads/Real-Time-Systems/Ada_Drivers_Library/boards/MicroBit/obj/zfp_lib_Debug/libada_drivers_library.a(nrf51-timers.o)
                0x0000000000005dc8                nrf51__timers__set_prescaler
 .text.nrf51__timers__set_mode
                0x0000000000005e10       0x68 /home/nico/Downloads/Real-Time-Systems/Ada_Drivers_Library/boards/MicroBit/obj/zfp_lib_Debug/libada_drivers_library.a(nrf51-timers.o)
                0x0000000000005e10                nrf51__timers__set_mode
 .text.nrf51__timers__set_bitmode___postconditions.4807
                0x0000000000005e78       0x3c /home/nico/Downloads/Real-Time-Systems/Ada_Drivers_Library/boards/MicroBit/obj/zfp_lib_Debug/libada_drivers_library.a(nrf51-timers.o)
 .text.nrf51__timers__set_bitmode
                0x0000000000005eb4       0xa4 /home/nico/Downloads/Real-Time-Systems/Ada_Drivers_Library/boards/MicroBit/obj/zfp_lib_Debug/libada_drivers_library.a(nrf51-timers.o)
                0x0000000000005eb4                nrf51__timers__set_bitmode
 .text.nrf51__timers__bitmode
                0x0000000000005f58       0x54 /home/nico/Downloads/Real-Time-Systems/Ada_Drivers_Library/boards/MicroBit/obj/zfp_lib_Debug/libada_drivers_library.a(nrf51-timers.o)
                0x0000000000005f58                nrf51__timers__bitmode
 .text.nrf51__timers__compare_interrupt
                0x0000000000005fac      0x104 /home/nico/Downloads/Real-Time-Systems/Ada_Drivers_Library/boards/MicroBit/obj/zfp_lib_Debug/libada_drivers_library.a(nrf51-timers.o)
                0x0000000000005fac                nrf51__timers__compare_interrupt
 .text.nrf51__timers__compare_shortcut
                0x00000000000060b0      0x258 /home/nico/Downloads/Real-Time-Systems/Ada_Drivers_Library/boards/MicroBit/obj/zfp_lib_Debug/libada_drivers_library.a(nrf51-timers.o)
                0x00000000000060b0                nrf51__timers__compare_shortcut
 .text.nrf51__timers__set_compare
                0x0000000000006308       0x2c /home/nico/Downloads/Real-Time-Systems/Ada_Drivers_Library/boards/MicroBit/obj/zfp_lib_Debug/libada_drivers_library.a(nrf51-timers.o)
                0x0000000000006308                nrf51__timers__set_compare
 .text.nrf51__timers__capture
                0x0000000000006334       0x28 /home/nico/Downloads/Real-Time-Systems/Ada_Drivers_Library/boards/MicroBit/obj/zfp_lib_Debug/libada_drivers_library.a(nrf51-timers.o)
                0x0000000000006334                nrf51__timers__capture
 .text.nrf51__timers__capture__2
                0x000000000000635c       0x3c /home/nico/Downloads/Real-Time-Systems/Ada_Drivers_Library/boards/MicroBit/obj/zfp_lib_Debug/libada_drivers_library.a(nrf51-timers.o)
                0x000000000000635c                nrf51__timers__capture__2
 .text.nrf51__timers__cc_register
                0x0000000000006398       0x2c /home/nico/Downloads/Real-Time-Systems/Ada_Drivers_Library/boards/MicroBit/obj/zfp_lib_Debug/libada_drivers_library.a(nrf51-timers.o)
                0x0000000000006398                nrf51__timers__cc_register
 .text.nrf51__timers__start_task
                0x00000000000063c4       0x18 /home/nico/Downloads/Real-Time-Systems/Ada_Drivers_Library/boards/MicroBit/obj/zfp_lib_Debug/libada_drivers_library.a(nrf51-timers.o)
                0x00000000000063c4                nrf51__timers__start_task
 .text.nrf51__timers__stop_task
                0x00000000000063dc       0x18 /home/nico/Downloads/Real-Time-Systems/Ada_Drivers_Library/boards/MicroBit/obj/zfp_lib_Debug/libada_drivers_library.a(nrf51-timers.o)
                0x00000000000063dc                nrf51__timers__stop_task
 .text.nrf51__timers__count_task
                0x00000000000063f4       0x18 /home/nico/Downloads/Real-Time-Systems/Ada_Drivers_Library/boards/MicroBit/obj/zfp_lib_Debug/libada_drivers_library.a(nrf51-timers.o)
                0x00000000000063f4                nrf51__timers__count_task
 .text.nrf51__timers__clear_task
                0x000000000000640c       0x18 /home/nico/Downloads/Real-Time-Systems/Ada_Drivers_Library/boards/MicroBit/obj/zfp_lib_Debug/libada_drivers_library.a(nrf51-timers.o)
                0x000000000000640c                nrf51__timers__clear_task
 .text.nrf51__timers__capture_task
                0x0000000000006424       0x28 /home/nico/Downloads/Real-Time-Systems/Ada_Drivers_Library/boards/MicroBit/obj/zfp_lib_Debug/libada_drivers_library.a(nrf51-timers.o)
                0x0000000000006424                nrf51__timers__capture_task
 .text.nrf51__timers__compare_event
                0x000000000000644c       0x28 /home/nico/Downloads/Real-Time-Systems/Ada_Drivers_Library/boards/MicroBit/obj/zfp_lib_Debug/libada_drivers_library.a(nrf51-timers.o)
                0x000000000000644c                nrf51__timers__compare_event
 .text.nrf51__twi__twi_masterIP
                0x0000000000006474       0x34 /home/nico/Downloads/Real-Time-Systems/Ada_Drivers_Library/boards/MicroBit/obj/zfp_lib_Debug/libada_drivers_library.a(nrf51-twi.o)
                0x0000000000006474                nrf51__twi__twi_masterIP
 .text.nrf51__twi___size__2
                0x00000000000064a8       0x18 /home/nico/Downloads/Real-Time-Systems/Ada_Drivers_Library/boards/MicroBit/obj/zfp_lib_Debug/libada_drivers_library.a(nrf51-twi.o)
                0x00000000000064a8                nrf51__twi___size__2
 .text.nrf51__twi__Oeq
                0x00000000000064c0       0x3c /home/nico/Downloads/Real-Time-Systems/Ada_Drivers_Library/boards/MicroBit/obj/zfp_lib_Debug/libada_drivers_library.a(nrf51-twi.o)
                0x00000000000064c0                nrf51__twi__Oeq
 .text.nrf51__twi___assign
                0x00000000000064fc       0x3c /home/nico/Downloads/Real-Time-Systems/Ada_Drivers_Library/boards/MicroBit/obj/zfp_lib_Debug/libada_drivers_library.a(nrf51-twi.o)
                0x00000000000064fc                nrf51__twi___assign
 .text.nrf51__twi__stop_sequence
                0x0000000000006538       0x34 /home/nico/Downloads/Real-Time-Systems/Ada_Drivers_Library/boards/MicroBit/obj/zfp_lib_Debug/libada_drivers_library.a(nrf51-twi.o)
 .text.nrf51__twi__enable
                0x000000000000656c       0x38 /home/nico/Downloads/Real-Time-Systems/Ada_Drivers_Library/boards/MicroBit/obj/zfp_lib_Debug/libada_drivers_library.a(nrf51-twi.o)
                0x000000000000656c                nrf51__twi__enable
 .text.nrf51__twi__disable
                0x00000000000065a4       0x34 /home/nico/Downloads/Real-Time-Systems/Ada_Drivers_Library/boards/MicroBit/obj/zfp_lib_Debug/libada_drivers_library.a(nrf51-twi.o)
                0x00000000000065a4                nrf51__twi__disable
 .text.nrf51__twi__enabled
                0x00000000000065d8       0x30 /home/nico/Downloads/Real-Time-Systems/Ada_Drivers_Library/boards/MicroBit/obj/zfp_lib_Debug/libada_drivers_library.a(nrf51-twi.o)
                0x00000000000065d8                nrf51__twi__enabled
 .text.nrf51__twi__configure
                0x0000000000006608       0x78 /home/nico/Downloads/Real-Time-Systems/Ada_Drivers_Library/boards/MicroBit/obj/zfp_lib_Debug/libada_drivers_library.a(nrf51-twi.o)
                0x0000000000006608                nrf51__twi__configure
 .text.nrf51__twi__disconnect
                0x0000000000006680       0x2c /home/nico/Downloads/Real-Time-Systems/Ada_Drivers_Library/boards/MicroBit/obj/zfp_lib_Debug/libada_drivers_library.a(nrf51-twi.o)
                0x0000000000006680                nrf51__twi__disconnect
 .text.nrf51__twi__master_transmit
                0x00000000000066ac      0x27c /home/nico/Downloads/Real-Time-Systems/Ada_Drivers_Library/boards/MicroBit/obj/zfp_lib_Debug/libada_drivers_library.a(nrf51-twi.o)
                0x00000000000066ac                nrf51__twi__master_transmit
 .text.nrf51__twi__master_receive
                0x0000000000006928      0x2bc /home/nico/Downloads/Real-Time-Systems/Ada_Drivers_Library/boards/MicroBit/obj/zfp_lib_Debug/libada_drivers_library.a(nrf51-twi.o)
                0x0000000000006928                nrf51__twi__master_receive
 .text.nrf51__twi__mem_write
                0x0000000000006be4      0x21c /home/nico/Downloads/Real-Time-Systems/Ada_Drivers_Library/boards/MicroBit/obj/zfp_lib_Debug/libada_drivers_library.a(nrf51-twi.o)
                0x0000000000006be4                nrf51__twi__mem_write
 .text.nrf51__twi__mem_read
                0x0000000000006e00      0x21c /home/nico/Downloads/Real-Time-Systems/Ada_Drivers_Library/boards/MicroBit/obj/zfp_lib_Debug/libada_drivers_library.a(nrf51-twi.o)
                0x0000000000006e00                nrf51__twi__mem_read
 .text.nrf51__uart__uart_deviceIP
                0x000000000000701c       0x34 /home/nico/Downloads/Real-Time-Systems/Ada_Drivers_Library/boards/MicroBit/obj/zfp_lib_Debug/libada_drivers_library.a(nrf51-uart.o)
                0x000000000000701c                nrf51__uart__uart_deviceIP
 .text.nrf51__uart___size__2
                0x0000000000007050       0x18 /home/nico/Downloads/Real-Time-Systems/Ada_Drivers_Library/boards/MicroBit/obj/zfp_lib_Debug/libada_drivers_library.a(nrf51-uart.o)
                0x0000000000007050                nrf51__uart___size__2
 .text.nrf51__uart__Oeq
                0x0000000000007068       0x3c /home/nico/Downloads/Real-Time-Systems/Ada_Drivers_Library/boards/MicroBit/obj/zfp_lib_Debug/libada_drivers_library.a(nrf51-uart.o)
                0x0000000000007068                nrf51__uart__Oeq
 .text.nrf51__uart___assign
                0x00000000000070a4       0x3c /home/nico/Downloads/Real-Time-Systems/Ada_Drivers_Library/boards/MicroBit/obj/zfp_lib_Debug/libada_drivers_library.a(nrf51-uart.o)
                0x00000000000070a4                nrf51__uart___assign
 .text.nrf51__uart__data_size
                0x00000000000070e0       0x14 /home/nico/Downloads/Real-Time-Systems/Ada_Drivers_Library/boards/MicroBit/obj/zfp_lib_Debug/libada_drivers_library.a(nrf51-uart.o)
                0x00000000000070e0                nrf51__uart__data_size
 .text.nrf51__uart__configure
                0x00000000000070f4       0x60 /home/nico/Downloads/Real-Time-Systems/Ada_Drivers_Library/boards/MicroBit/obj/zfp_lib_Debug/libada_drivers_library.a(nrf51-uart.o)
                0x00000000000070f4                nrf51__uart__configure
 .text.nrf51__uart__enable
                0x0000000000007154       0x90 /home/nico/Downloads/Real-Time-Systems/Ada_Drivers_Library/boards/MicroBit/obj/zfp_lib_Debug/libada_drivers_library.a(nrf51-uart.o)
                0x0000000000007154                nrf51__uart__enable
 .text.nrf51__uart__disable
                0x00000000000071e4       0x64 /home/nico/Downloads/Real-Time-Systems/Ada_Drivers_Library/boards/MicroBit/obj/zfp_lib_Debug/libada_drivers_library.a(nrf51-uart.o)
                0x00000000000071e4                nrf51__uart__disable
 .text.nrf51__uart__enable_flow_control
                0x0000000000007248       0x50 /home/nico/Downloads/Real-Time-Systems/Ada_Drivers_Library/boards/MicroBit/obj/zfp_lib_Debug/libada_drivers_library.a(nrf51-uart.o)
                0x0000000000007248                nrf51__uart__enable_flow_control
 .text.nrf51__uart__disable_flow_control
                0x0000000000007298       0x50 /home/nico/Downloads/Real-Time-Systems/Ada_Drivers_Library/boards/MicroBit/obj/zfp_lib_Debug/libada_drivers_library.a(nrf51-uart.o)
                0x0000000000007298                nrf51__uart__disable_flow_control
 .text.nrf51__uart__transmit
                0x00000000000072e8       0xe0 /home/nico/Downloads/Real-Time-Systems/Ada_Drivers_Library/boards/MicroBit/obj/zfp_lib_Debug/libada_drivers_library.a(nrf51-uart.o)
                0x00000000000072e8                nrf51__uart__transmit
 .text.nrf51__uart__receive
                0x00000000000073c8       0xbc /home/nico/Downloads/Real-Time-Systems/Ada_Drivers_Library/boards/MicroBit/obj/zfp_lib_Debug/libada_drivers_library.a(nrf51-uart.o)
                0x00000000000073c8                nrf51__uart(long double,...)(char,...)(int, void,...)
 .text.nrf51__uart__transmit__2
                0x0000000000007484       0x44 /home/nico/Downloads/Real-Time-Systems/Ada_Drivers_Library/boards/MicroBit/obj/zfp_lib_Debug/libada_drivers_library.a(nrf51-uart.o)
                0x0000000000007484                nrf51__uart__transmit__2
 .text.nrf51__uart__receive__2
                0x00000000000074c8       0x44 /home/nico/Downloads/Real-Time-Systems/Ada_Drivers_Library/boards/MicroBit/obj/zfp_lib_Debug/libada_drivers_library.a(nrf51-uart.o)
                0x00000000000074c8                nrf51__uart__receive__2
 .text.nrf51_svd__gpio__pin_cnf_pull_fieldRP
                0x000000000000750c       0x3c /home/nico/Downloads/Real-Time-Systems/Ada_Drivers_Library/boards/MicroBit/obj/zfp_lib_Debug/libada_drivers_library.a(nrf51_svd-gpio.o)
                0x000000000000750c                nrf51_svd__gpio__pin_cnf_pull_fieldRP
 .text.nrf51_svd__twi__errorsrc_registerIP
                0x0000000000007548       0x48 /home/nico/Downloads/Real-Time-Systems/Ada_Drivers_Library/boards/MicroBit/obj/zfp_lib_Debug/libada_drivers_library.a(nrf51_svd-twi.o)
                0x0000000000007548                nrf51_svd__twi__errorsrc_registerIP
 .text.__gnat_last_chance_handler
                0x0000000000007590       0x80 /home/nico/opt/GNAT/2019-arm-elf/arm-eabi/lib/gnat/zfp-cortex-m0/adalib/libgnat.a(a-elchha.o)
                0x0000000000007590                __gnat_last_chance_handler
 .text          0x0000000000007610       0x20 /home/nico/opt/GNAT/2019-arm-elf/arm-eabi/lib/gnat/zfp-cortex-m0/adalib/libgnat.a(breakpoint_handler-cortexm.o)
                0x0000000000007610                __gnat_bkpt_trap
 .text.gnat__io__put__2
                0x0000000000007630       0x44 /home/nico/opt/GNAT/2019-arm-elf/arm-eabi/lib/gnat/zfp-cortex-m0/adalib/libgnat.a(g-io.o)
                0x0000000000007630                gnat__io__put__2
 .text.gnat__io__new_line
                0x0000000000007674       0x14 /home/nico/opt/GNAT/2019-arm-elf/arm-eabi/lib/gnat/zfp-cortex-m0/adalib/libgnat.a(g-io.o)
                0x0000000000007674                gnat__io__new_line
 .text.gnat__io__put__3
                0x0000000000007688       0x20 /home/nico/opt/GNAT/2019-arm-elf/arm-eabi/lib/gnat/zfp-cortex-m0/adalib/libgnat.a(g-io.o)
                0x0000000000007688                gnat__io__put__3
 .text.gnat__io__put
                0x00000000000076a8       0x6c /home/nico/opt/GNAT/2019-arm-elf/arm-eabi/lib/gnat/zfp-cortex-m0/adalib/libgnat.a(g-io.o)
                0x00000000000076a8                gnat__io__put
 .text.gnat__io__put_line
                0x0000000000007714       0x10 /home/nico/opt/GNAT/2019-arm-elf/arm-eabi/lib/gnat/zfp-cortex-m0/adalib/libgnat.a(g-io.o)
                0x0000000000007714                gnat__io__put_line
 .text.system__assertions__raise_assert_failure
                0x0000000000007724       0x68 /home/nico/opt/GNAT/2019-arm-elf/arm-eabi/lib/gnat/zfp-cortex-m0/adalib/libgnat.a(s-assert.o)
                0x0000000000007724                system__assertions__raise_assert_failure
 .text.system__img_int__set_digits
                0x000000000000778c       0x50 /home/nico/opt/GNAT/2019-arm-elf/arm-eabi/lib/gnat/zfp-cortex-m0/adalib/libgnat.a(s-imgint.o)
 .text.system__img_int__set_image_integer
                0x00000000000077dc       0x20 /home/nico/opt/GNAT/2019-arm-elf/arm-eabi/lib/gnat/zfp-cortex-m0/adalib/libgnat.a(s-imgint.o)
                0x00000000000077dc                system__img_int__set_image_integer
 .text.system__img_int__image_integer
                0x00000000000077fc       0x1c /home/nico/opt/GNAT/2019-arm-elf/arm-eabi/lib/gnat/zfp-cortex-m0/adalib/libgnat.a(s-imgint.o)
                0x00000000000077fc                system__img_int__image_integer
 .text._exit    0x0000000000007818       0x10 /home/nico/opt/GNAT/2019-arm-elf/arm-eabi/lib/gnat/zfp-cortex-m0/adalib/libgnat.a(s-macres.o)
                0x0000000000007818                _exit
 .text.system__machine_reset__stop
                0x0000000000007828       0x10 /home/nico/opt/GNAT/2019-arm-elf/arm-eabi/lib/gnat/zfp-cortex-m0/adalib/libgnat.a(s-macres.o)
                0x0000000000007828                system__machine_reset__stop
 .text.memcmp   0x0000000000007838       0x58 /home/nico/opt/GNAT/2019-arm-elf/arm-eabi/lib/gnat/zfp-cortex-m0/adalib/libgnat.a(s-memcom.o)
                0x0000000000007838                memcmp
 .text.memcpy   0x0000000000007890       0x4c /home/nico/opt/GNAT/2019-arm-elf/arm-eabi/lib/gnat/zfp-cortex-m0/adalib/libgnat.a(s-memcop.o)
                0x0000000000007890                memcpy
 .text.memset   0x00000000000078dc       0x40 /home/nico/opt/GNAT/2019-arm-elf/arm-eabi/lib/gnat/zfp-cortex-m0/adalib/libgnat.a(s-memset.o)
                0x00000000000078dc                memset
 .text.system__secondary_stack__ss_stackIP
                0x000000000000791c        0x4 /home/nico/opt/GNAT/2019-arm-elf/arm-eabi/lib/gnat/zfp-cortex-m0/adalib/libgnat.a(s-secsta.o)
                0x000000000000791c                system__secondary_stack__ss_stackIP
 .text.system__text_io__initialize
                0x0000000000007920        0xc /home/nico/opt/GNAT/2019-arm-elf/arm-eabi/lib/gnat/zfp-cortex-m0/adalib/libgnat.a(s-textio.o)
                0x0000000000007920                system__text_io__initialize
 .text.system__text_io__is_tx_ready
                0x000000000000792c        0x4 /home/nico/opt/GNAT/2019-arm-elf/arm-eabi/lib/gnat/zfp-cortex-m0/adalib/libgnat.a(s-textio.o)
                0x000000000000792c                system__text_io__is_tx_ready
 .text.system__text_io__put
                0x0000000000007930        0x8 /home/nico/opt/GNAT/2019-arm-elf/arm-eabi/lib/gnat/zfp-cortex-m0/adalib/libgnat.a(s-textio.o)
                0x0000000000007930                system__text_io__put
 .text.system__text_io__use_cr_lf_for_new_line
                0x0000000000007938        0x4 /home/nico/opt/GNAT/2019-arm-elf/arm-eabi/lib/gnat/zfp-cortex-m0/adalib/libgnat.a(s-textio.o)
                0x0000000000007938                system__text_io__use_cr_lf_for_new_line
 .text.system__semihosting__put
                0x000000000000793c       0x78 /home/nico/opt/GNAT/2019-arm-elf/arm-eabi/lib/gnat/zfp-cortex-m0/adalib/libgnat.a(s-semiho.o)
                0x000000000000793c                system__semihosting__put
 .text          0x00000000000079b4      0x1d4 /home/nico/opt/GNAT/2019-arm-elf/bin/../lib/gcc/arm-eabi/7.4.1/thumb/v6-m/libgcc.a(_divsi3.o)
                0x00000000000079b4                __aeabi_idiv
                0x00000000000079b4                __divsi3
                0x0000000000007b80                __aeabi_idivmod
 .text          0x0000000000007b88        0x4 /home/nico/opt/GNAT/2019-arm-elf/bin/../lib/gcc/arm-eabi/7.4.1/thumb/v6-m/libgcc.a(_dvmd_tls.o)
                0x0000000000007b88                __aeabi_ldiv0
                0x0000000000007b88                __aeabi_idiv0
 .text          0x0000000000007b8c       0x74 /home/nico/opt/GNAT/2019-arm-elf/bin/../lib/gcc/arm-eabi/7.4.1/thumb/v6-m/libgcc.a(_arm_cmpsf2.o)
                0x0000000000007b8c                __aeabi_cfrcmple
                0x0000000000007b94                __aeabi_cfcmple
                0x0000000000007b94                __aeabi_cfcmpeq
                0x0000000000007ba4                __aeabi_fcmpeq
                0x0000000000007bb0                __aeabi_fcmplt
                0x0000000000007bc4                __aeabi_fcmple
                0x0000000000007bd8                __aeabi_fcmpgt
                0x0000000000007bec                __aeabi_fcmpge
 .text          0x0000000000007c00       0x30 /home/nico/opt/GNAT/2019-arm-elf/bin/../lib/gcc/arm-eabi/7.4.1/thumb/v6-m/libgcc.a(_fixunssfsi.o)
                0x0000000000007c00                __aeabi_f2uiz
                0x0000000000007c00                __fixunssfsi
 .text          0x0000000000007c30      0x338 /home/nico/opt/GNAT/2019-arm-elf/bin/../lib/gcc/arm-eabi/7.4.1/thumb/v6-m/libgcc.a(addsf3.o)
                0x0000000000007c30                __aeabi_fadd
 .text          0x0000000000007f68      0x218 /home/nico/opt/GNAT/2019-arm-elf/bin/../lib/gcc/arm-eabi/7.4.1/thumb/v6-m/libgcc.a(divsf3.o)
                0x0000000000007f68                __aeabi_fdiv
 .text          0x0000000000008180       0x4c /home/nico/opt/GNAT/2019-arm-elf/bin/../lib/gcc/arm-eabi/7.4.1/thumb/v6-m/libgcc.a(eqsf2.o)
                0x0000000000008180                __nesf2
                0x0000000000008180                __eqsf2
 .text          0x00000000000081cc       0x8c /home/nico/opt/GNAT/2019-arm-elf/bin/../lib/gcc/arm-eabi/7.4.1/thumb/v6-m/libgcc.a(gesf2.o)
                0x00000000000081cc                __gtsf2
                0x00000000000081cc                __gesf2
 .text          0x0000000000008258       0x84 /home/nico/opt/GNAT/2019-arm-elf/bin/../lib/gcc/arm-eabi/7.4.1/thumb/v6-m/libgcc.a(lesf2.o)
                0x0000000000008258                __lesf2
                0x0000000000008258                __ltsf2
 .text          0x00000000000082dc      0x240 /home/nico/opt/GNAT/2019-arm-elf/bin/../lib/gcc/arm-eabi/7.4.1/thumb/v6-m/libgcc.a(mulsf3.o)
                0x00000000000082dc                __aeabi_fmul
 .text          0x000000000000851c      0x388 /home/nico/opt/GNAT/2019-arm-elf/bin/../lib/gcc/arm-eabi/7.4.1/thumb/v6-m/libgcc.a(subsf3.o)
                0x000000000000851c                __aeabi_fsub
 .text          0x00000000000088a4       0x2c /home/nico/opt/GNAT/2019-arm-elf/bin/../lib/gcc/arm-eabi/7.4.1/thumb/v6-m/libgcc.a(unordsf2.o)
                0x00000000000088a4                __aeabi_fcmpun
 .text          0x00000000000088d0       0x40 /home/nico/opt/GNAT/2019-arm-elf/bin/../lib/gcc/arm-eabi/7.4.1/thumb/v6-m/libgcc.a(fixsfsi.o)
                0x00000000000088d0                __aeabi_f2iz
 .text          0x0000000000008910       0x98 /home/nico/opt/GNAT/2019-arm-elf/bin/../lib/gcc/arm-eabi/7.4.1/thumb/v6-m/libgcc.a(floatsisf.o)
                0x0000000000008910                __aeabi_i2f
 .text          0x00000000000089a8       0x84 /home/nico/opt/GNAT/2019-arm-elf/bin/../lib/gcc/arm-eabi/7.4.1/thumb/v6-m/libgcc.a(floatunsisf.o)
                0x00000000000089a8                __aeabi_ui2f
 .text          0x0000000000008a2c       0x3c /home/nico/opt/GNAT/2019-arm-elf/bin/../lib/gcc/arm-eabi/7.4.1/thumb/v6-m/libgcc.a(_clzsi2.o)
                0x0000000000008a2c                __clzsi2
 *(.gnu.warning)

.glue_7         0x0000000000008a68        0x0
 .glue_7        0x0000000000008a68        0x0 linker stubs

.glue_7t        0x0000000000008a68        0x0
 .glue_7t       0x0000000000008a68        0x0 linker stubs

.vfp11_veneer   0x0000000000008a68        0x0
 .vfp11_veneer  0x0000000000008a68        0x0 linker stubs

.v4_bx          0x0000000000008a68        0x0
 .v4_bx         0x0000000000008a68        0x0 linker stubs

.iplt           0x0000000000008a68        0x0
 .iplt          0x0000000000008a68        0x0 main.o

.ARM.extab
 *(.ARM.extab* .gnu.linkonce.armextab.*)
                [!provide]                        PROVIDE (__exidx_start = .)

.ARM.exidx
 *(.ARM.exidx* .gnu.linkonce.armexidx.*)
                [!provide]                        PROVIDE (__exidx_end = .)

.rodata         0x0000000000008a68     0x1508
 *(.lit)
 *(.rodata .rodata.* .gnu.linkonce.r*)
 .rodata        0x0000000000008a68       0x80 main.o
 .rodata        0x0000000000008ae8        0x8 b__main.o
 .rodata.__gnat_ada_main_program_name
                0x0000000000008af0        0xa b__main.o
                0x0000000000008af0                __gnat_ada_main_program_name
 *fill*         0x0000000000008afa        0x2 
 .rodata        0x0000000000008afc       0x16 /home/nico/Downloads/Real-Time-Systems/driving/obj/chore.o
 *fill*         0x0000000000008b12        0x2 
 .rodata.chore__choreE14s
                0x0000000000008b14        0xc /home/nico/Downloads/Real-Time-Systems/driving/obj/chore.o
                0x0000000000008b14                chore__choreE14s
 .rodata.chore__choreB18s
                0x0000000000008b20       0x1c /home/nico/Downloads/Real-Time-Systems/driving/obj/chore.o
                0x0000000000008b20                chore__choreB18s
 .rodata.chore__choreR16s___UNC
                0x0000000000008b3c       0x24 /home/nico/Downloads/Real-Time-Systems/driving/obj/chore.o
                0x0000000000008b3c                chore__choreR16s___UNC
 .rodata.chore__choreT
                0x0000000000008b60       0x14 /home/nico/Downloads/Real-Time-Systems/driving/obj/chore.o
                0x0000000000008b60                chore__choreT
 .rodata        0x0000000000008b74       0x18 /home/nico/Downloads/Real-Time-Systems/driving/obj/qjs.o
 .rodata.qjs__scheduleE22s
                0x0000000000008b8c        0xd /home/nico/Downloads/Real-Time-Systems/driving/obj/qjs.o
                0x0000000000008b8c                qjs__scheduleE22s
 *fill*         0x0000000000008b99        0x3 
 .rodata.qjs__scheduleB26s
                0x0000000000008b9c       0x1c /home/nico/Downloads/Real-Time-Systems/driving/obj/qjs.o
                0x0000000000008b9c                qjs__scheduleB26s
 .rodata.qjs__scheduleR24s___UNC
                0x0000000000008bb8       0x24 /home/nico/Downloads/Real-Time-Systems/driving/obj/qjs.o
                0x0000000000008bb8                qjs__scheduleR24s___UNC
 .rodata.qjs__scheduleT
                0x0000000000008bdc       0x14 /home/nico/Downloads/Real-Time-Systems/driving/obj/qjs.o
                0x0000000000008bdc                qjs__scheduleT
 .rodata        0x0000000000008bf0       0xa2 /home/nico/Downloads/Real-Time-Systems/driving/obj/sensor.o
 *fill*         0x0000000000008c92        0x2 
 .rodata        0x0000000000008c94       0x80 /home/nico/Downloads/Real-Time-Systems/Ada_Drivers_Library/boards/MicroBit/obj/zfp_lib_Debug/libada_drivers_library.a(microbit-accelerometer.o)
 .rodata        0x0000000000008d14       0x2c /home/nico/Downloads/Real-Time-Systems/Ada_Drivers_Library/boards/MicroBit/obj/zfp_lib_Debug/libada_drivers_library.a(microbit-console.o)
 .rodata        0x0000000000008d40       0x85 /home/nico/Downloads/Real-Time-Systems/Ada_Drivers_Library/boards/MicroBit/obj/zfp_lib_Debug/libada_drivers_library.a(microbit-display.o)
 *fill*         0x0000000000008dc5        0x3 
 .rodata.microbit__display__map
                0x0000000000008dc8       0xc8 /home/nico/Downloads/Real-Time-Systems/Ada_Drivers_Library/boards/MicroBit/obj/zfp_lib_Debug/libada_drivers_library.a(microbit-display.o)
                0x0000000000008dc8                microbit__display__map
 .rodata.microbit__display__font
                0x0000000000008e90      0x1d6 /home/nico/Downloads/Real-Time-Systems/Ada_Drivers_Library/boards/MicroBit/obj/zfp_lib_Debug/libada_drivers_library.a(microbit-display.o)
                0x0000000000008e90                microbit__display__font
 *fill*         0x0000000000009066        0x2 
 .rodata        0x0000000000009068       0x49 /home/nico/Downloads/Real-Time-Systems/Ada_Drivers_Library/boards/MicroBit/obj/zfp_lib_Debug/libada_drivers_library.a(microbit-i2c.o)
 *fill*         0x00000000000090b1        0x3 
 .rodata        0x00000000000090b4      0x1be /home/nico/Downloads/Real-Time-Systems/Ada_Drivers_Library/boards/MicroBit/obj/zfp_lib_Debug/libada_drivers_library.a(microbit-ios.o)
 *fill*         0x0000000000009272        0x2 
 .rodata        0x0000000000009274       0x14 /home/nico/Downloads/Real-Time-Systems/Ada_Drivers_Library/boards/MicroBit/obj/zfp_lib_Debug/libada_drivers_library.a(microbit-servos.o)
 .rodata        0x0000000000009288       0xe2 /home/nico/Downloads/Real-Time-Systems/Ada_Drivers_Library/boards/MicroBit/obj/zfp_lib_Debug/libada_drivers_library.a(microbit-time.o)
 *fill*         0x000000000000936a        0x2 
 .rodata.microbit__time__mb_delaysE17s
                0x000000000000936c       0x18 /home/nico/Downloads/Real-Time-Systems/Ada_Drivers_Library/boards/MicroBit/obj/zfp_lib_Debug/libada_drivers_library.a(microbit-time.o)
                0x000000000000936c                microbit__time__mb_delaysE17s
 .rodata.microbit__time__mb_delaysB21s
                0x0000000000009384       0x20 /home/nico/Downloads/Real-Time-Systems/Ada_Drivers_Library/boards/MicroBit/obj/zfp_lib_Debug/libada_drivers_library.a(microbit-time.o)
                0x0000000000009384                microbit__time__mb_delaysB21s
 .rodata.microbit__time__mb_delaysR19s___UNC
                0x00000000000093a4       0x24 /home/nico/Downloads/Real-Time-Systems/Ada_Drivers_Library/boards/MicroBit/obj/zfp_lib_Debug/libada_drivers_library.a(microbit-time.o)
                0x00000000000093a4                microbit__time__mb_delaysR19s___UNC
 .rodata.microbit__time__mb_delaysT
                0x00000000000093c8       0x1c /home/nico/Downloads/Real-Time-Systems/Ada_Drivers_Library/boards/MicroBit/obj/zfp_lib_Debug/libada_drivers_library.a(microbit-time.o)
                0x00000000000093c8                microbit__time__mb_delaysT
 .rodata        0x00000000000093e4       0x1c /home/nico/Downloads/Real-Time-Systems/Ada_Drivers_Library/boards/MicroBit/obj/zfp_lib_Debug/libada_drivers_library.a(mma8653.o)
 .rodata.mma8653__mma8653_accelerometerE8s
                0x0000000000009400       0x1e /home/nico/Downloads/Real-Time-Systems/Ada_Drivers_Library/boards/MicroBit/obj/zfp_lib_Debug/libada_drivers_library.a(mma8653.o)
                0x0000000000009400                mma8653__mma8653_accelerometerE8s
 *fill*         0x000000000000941e        0x2 
 .rodata.mma8653__mma8653_accelerometerB12s
                0x0000000000009420       0x1c /home/nico/Downloads/Real-Time-Systems/Ada_Drivers_Library/boards/MicroBit/obj/zfp_lib_Debug/libada_drivers_library.a(mma8653.o)
                0x0000000000009420                mma8653__mma8653_accelerometerB12s
 .rodata.mma8653__mma8653_accelerometerR10s___UNC
                0x000000000000943c        0xc /home/nico/Downloads/Real-Time-Systems/Ada_Drivers_Library/boards/MicroBit/obj/zfp_lib_Debug/libada_drivers_library.a(mma8653.o)
                0x000000000000943c                mma8653__mma8653_accelerometerR10s___UNC
 .rodata.mma8653__mma8653_accelerometerT
                0x0000000000009448       0x1c /home/nico/Downloads/Real-Time-Systems/Ada_Drivers_Library/boards/MicroBit/obj/zfp_lib_Debug/libada_drivers_library.a(mma8653.o)
                0x0000000000009448                mma8653__mma8653_accelerometerT
 .rodata        0x0000000000009464       0x10 /home/nico/Downloads/Real-Time-Systems/Ada_Drivers_Library/boards/MicroBit/obj/zfp_lib_Debug/libada_drivers_library.a(nrf51-clock.o)
 .rodata        0x0000000000009474       0x11 /home/nico/Downloads/Real-Time-Systems/Ada_Drivers_Library/boards/MicroBit/obj/zfp_lib_Debug/libada_drivers_library.a(nrf51-events.o)
 *fill*         0x0000000000009485        0x3 
 .rodata        0x0000000000009488       0x20 /home/nico/Downloads/Real-Time-Systems/Ada_Drivers_Library/boards/MicroBit/obj/zfp_lib_Debug/libada_drivers_library.a(nrf51-gpio-tasks_and_events.o)
 .rodata        0x00000000000094a8       0xc3 /home/nico/Downloads/Real-Time-Systems/Ada_Drivers_Library/boards/MicroBit/obj/zfp_lib_Debug/libada_drivers_library.a(nrf51-gpio.o)
 *fill*         0x000000000000956b        0x1 
 .rodata.nrf51__gpio__configure_io
                0x000000000000956c       0x1c /home/nico/Downloads/Real-Time-Systems/Ada_Drivers_Library/boards/MicroBit/obj/zfp_lib_Debug/libada_drivers_library.a(nrf51-gpio.o)
 .rodata.nrf51__gpio__gpio_pointE13s
                0x0000000000009588       0x16 /home/nico/Downloads/Real-Time-Systems/Ada_Drivers_Library/boards/MicroBit/obj/zfp_lib_Debug/libada_drivers_library.a(nrf51-gpio.o)
                0x0000000000009588                nrf51__gpio__gpio_pointE13s
 *fill*         0x000000000000959e        0x2 
 .rodata.nrf51__gpio__gpio_pointB17s
                0x00000000000095a0       0x20 /home/nico/Downloads/Real-Time-Systems/Ada_Drivers_Library/boards/MicroBit/obj/zfp_lib_Debug/libada_drivers_library.a(nrf51-gpio.o)
                0x00000000000095a0                nrf51__gpio__gpio_pointB17s
 .rodata.nrf51__gpio__gpio_pointR15s___UNC
                0x00000000000095c0       0x24 /home/nico/Downloads/Real-Time-Systems/Ada_Drivers_Library/boards/MicroBit/obj/zfp_lib_Debug/libada_drivers_library.a(nrf51-gpio.o)
                0x00000000000095c0                nrf51__gpio__gpio_pointR15s___UNC
 .rodata.nrf51__gpio__gpio_pointT
                0x00000000000095e4       0x38 /home/nico/Downloads/Real-Time-Systems/Ada_Drivers_Library/boards/MicroBit/obj/zfp_lib_Debug/libada_drivers_library.a(nrf51-gpio.o)
                0x00000000000095e4                nrf51__gpio__gpio_pointT
 .rodata        0x000000000000961c       0x15 /home/nico/Downloads/Real-Time-Systems/Ada_Drivers_Library/boards/MicroBit/obj/zfp_lib_Debug/libada_drivers_library.a(nrf51-interrupts.o)
 *fill*         0x0000000000009631        0x3 
 .rodata        0x0000000000009634        0xe /home/nico/Downloads/Real-Time-Systems/Ada_Drivers_Library/boards/MicroBit/obj/zfp_lib_Debug/libada_drivers_library.a(nrf51-ppi.o)
 *fill*         0x0000000000009642        0x2 
 .rodata        0x0000000000009644        0xe /home/nico/Downloads/Real-Time-Systems/Ada_Drivers_Library/boards/MicroBit/obj/zfp_lib_Debug/libada_drivers_library.a(nrf51-rtc.o)
 *fill*         0x0000000000009652        0x2 
 .rodata.nrf51__rtc__enable_event
                0x0000000000009654       0x14 /home/nico/Downloads/Real-Time-Systems/Ada_Drivers_Library/boards/MicroBit/obj/zfp_lib_Debug/libada_drivers_library.a(nrf51-rtc.o)
 .rodata        0x0000000000009668      0x1de /home/nico/Downloads/Real-Time-Systems/Ada_Drivers_Library/boards/MicroBit/obj/zfp_lib_Debug/libada_drivers_library.a(nrf51-spi_master.o)
 *fill*         0x0000000000009846        0x2 
 .rodata.nrf51__spi_master__configure
                0x0000000000009848       0x18 /home/nico/Downloads/Real-Time-Systems/Ada_Drivers_Library/boards/MicroBit/obj/zfp_lib_Debug/libada_drivers_library.a(nrf51-spi_master.o)
 .rodata.nrf51__spi_master__spi_masterE26s
                0x0000000000009860       0x1c /home/nico/Downloads/Real-Time-Systems/Ada_Drivers_Library/boards/MicroBit/obj/zfp_lib_Debug/libada_drivers_library.a(nrf51-spi_master.o)
                0x0000000000009860                nrf51__spi_master__spi_masterE26s
 .rodata.nrf51__spi_master__spi_masterB30s
                0x000000000000987c       0x20 /home/nico/Downloads/Real-Time-Systems/Ada_Drivers_Library/boards/MicroBit/obj/zfp_lib_Debug/libada_drivers_library.a(nrf51-spi_master.o)
                0x000000000000987c                nrf51__spi_master__spi_masterB30s
 .rodata.nrf51__spi_master__spi_masterR28s___UNC
                0x000000000000989c       0x24 /home/nico/Downloads/Real-Time-Systems/Ada_Drivers_Library/boards/MicroBit/obj/zfp_lib_Debug/libada_drivers_library.a(nrf51-spi_master.o)
                0x000000000000989c                nrf51__spi_master__spi_masterR28s___UNC
 .rodata.nrf51__spi_master__spi_masterT
                0x00000000000098c0       0x38 /home/nico/Downloads/Real-Time-Systems/Ada_Drivers_Library/boards/MicroBit/obj/zfp_lib_Debug/libada_drivers_library.a(nrf51-spi_master.o)
                0x00000000000098c0                nrf51__spi_master__spi_masterT
 .rodata        0x00000000000098f8       0x10 /home/nico/Downloads/Real-Time-Systems/Ada_Drivers_Library/boards/MicroBit/obj/zfp_lib_Debug/libada_drivers_library.a(nrf51-tasks.o)
 .rodata        0x0000000000009908       0x60 /home/nico/Downloads/Real-Time-Systems/Ada_Drivers_Library/boards/MicroBit/obj/zfp_lib_Debug/libada_drivers_library.a(nrf51-timers.o)
 .rodata.nrf51__timers__timerE19s
                0x0000000000009968       0x13 /home/nico/Downloads/Real-Time-Systems/Ada_Drivers_Library/boards/MicroBit/obj/zfp_lib_Debug/libada_drivers_library.a(nrf51-timers.o)
                0x0000000000009968                nrf51__timers__timerE19s
 *fill*         0x000000000000997b        0x1 
 .rodata.nrf51__timers__timerB23s
                0x000000000000997c       0x1c /home/nico/Downloads/Real-Time-Systems/Ada_Drivers_Library/boards/MicroBit/obj/zfp_lib_Debug/libada_drivers_library.a(nrf51-timers.o)
                0x000000000000997c                nrf51__timers__timerB23s
 .rodata.nrf51__timers__timerR21s___UNC
                0x0000000000009998       0x24 /home/nico/Downloads/Real-Time-Systems/Ada_Drivers_Library/boards/MicroBit/obj/zfp_lib_Debug/libada_drivers_library.a(nrf51-timers.o)
                0x0000000000009998                nrf51__timers__timerR21s___UNC
 .rodata.nrf51__timers__timerT
                0x00000000000099bc       0x5c /home/nico/Downloads/Real-Time-Systems/Ada_Drivers_Library/boards/MicroBit/obj/zfp_lib_Debug/libada_drivers_library.a(nrf51-timers.o)
                0x00000000000099bc                nrf51__timers__timerT
 .rodata        0x0000000000009a18       0xe6 /home/nico/Downloads/Real-Time-Systems/Ada_Drivers_Library/boards/MicroBit/obj/zfp_lib_Debug/libada_drivers_library.a(nrf51-twi.o)
 *fill*         0x0000000000009afe        0x2 
 .rodata.nrf51__twi__twi_masterE22s
                0x0000000000009b00       0x15 /home/nico/Downloads/Real-Time-Systems/Ada_Drivers_Library/boards/MicroBit/obj/zfp_lib_Debug/libada_drivers_library.a(nrf51-twi.o)
                0x0000000000009b00                nrf51__twi__twi_masterE22s
 *fill*         0x0000000000009b15        0x3 
 .rodata.nrf51__twi__twi_masterB26s
                0x0000000000009b18       0x20 /home/nico/Downloads/Real-Time-Systems/Ada_Drivers_Library/boards/MicroBit/obj/zfp_lib_Debug/libada_drivers_library.a(nrf51-twi.o)
                0x0000000000009b18                nrf51__twi__twi_masterB26s
 .rodata.nrf51__twi__twi_masterR24s___UNC
                0x0000000000009b38       0x24 /home/nico/Downloads/Real-Time-Systems/Ada_Drivers_Library/boards/MicroBit/obj/zfp_lib_Debug/libada_drivers_library.a(nrf51-twi.o)
                0x0000000000009b38                nrf51__twi__twi_masterR24s___UNC
 .rodata.nrf51__twi__twi_masterT
                0x0000000000009b5c       0x34 /home/nico/Downloads/Real-Time-Systems/Ada_Drivers_Library/boards/MicroBit/obj/zfp_lib_Debug/libada_drivers_library.a(nrf51-twi.o)
                0x0000000000009b5c                nrf51__twi__twi_masterT
 .rodata        0x0000000000009b90       0xf7 /home/nico/Downloads/Real-Time-Systems/Ada_Drivers_Library/boards/MicroBit/obj/zfp_lib_Debug/libada_drivers_library.a(nrf51-uart.o)
 *fill*         0x0000000000009c87        0x1 
 .rodata.nrf51__uart__uart_deviceE44s
                0x0000000000009c88       0x17 /home/nico/Downloads/Real-Time-Systems/Ada_Drivers_Library/boards/MicroBit/obj/zfp_lib_Debug/libada_drivers_library.a(nrf51-uart.o)
                0x0000000000009c88                nrf51__uart__uart_deviceE44s
 *fill*         0x0000000000009c9f        0x1 
 .rodata.nrf51__uart__uart_deviceB48s
                0x0000000000009ca0       0x20 /home/nico/Downloads/Real-Time-Systems/Ada_Drivers_Library/boards/MicroBit/obj/zfp_lib_Debug/libada_drivers_library.a(nrf51-uart.o)
                0x0000000000009ca0                nrf51__uart__uart_deviceB48s
 .rodata.nrf51__uart__uart_deviceR46s___UNC
                0x0000000000009cc0       0x24 /home/nico/Downloads/Real-Time-Systems/Ada_Drivers_Library/boards/MicroBit/obj/zfp_lib_Debug/libada_drivers_library.a(nrf51-uart.o)
                0x0000000000009cc0                nrf51__uart__uart_deviceR46s___UNC
 .rodata.nrf51__uart__uart_deviceT
                0x0000000000009ce4       0x38 /home/nico/Downloads/Real-Time-Systems/Ada_Drivers_Library/boards/MicroBit/obj/zfp_lib_Debug/libada_drivers_library.a(nrf51-uart.o)
                0x0000000000009ce4                nrf51__uart__uart_deviceT
 .rodata.hal__gpio__gpio_pointE5s
                0x0000000000009d1c       0x14 /home/nico/Downloads/Real-Time-Systems/Ada_Drivers_Library/boards/MicroBit/obj/zfp_lib_Debug/libada_drivers_library.a(hal-gpio.o)
                0x0000000000009d1c                hal__gpio__gpio_pointE5s
 .rodata.hal__gpio__gpio_pointB9s
                0x0000000000009d30       0x1c /home/nico/Downloads/Real-Time-Systems/Ada_Drivers_Library/boards/MicroBit/obj/zfp_lib_Debug/libada_drivers_library.a(hal-gpio.o)
                0x0000000000009d30                hal__gpio__gpio_pointB9s
 .rodata.hal__gpio__gpio_pointT
                0x0000000000009d4c        0x8 /home/nico/Downloads/Real-Time-Systems/Ada_Drivers_Library/boards/MicroBit/obj/zfp_lib_Debug/libada_drivers_library.a(hal-gpio.o)
                0x0000000000009d4c                hal__gpio__gpio_pointT
 .rodata.hal__i2c__i2c_portE2s
                0x0000000000009d54       0x11 /home/nico/Downloads/Real-Time-Systems/Ada_Drivers_Library/boards/MicroBit/obj/zfp_lib_Debug/libada_drivers_library.a(hal-i2c.o)
                0x0000000000009d54                hal__i2c__i2c_portE2s
 *fill*         0x0000000000009d65        0x3 
 .rodata.hal__i2c__i2c_portB6s
                0x0000000000009d68       0x1c /home/nico/Downloads/Real-Time-Systems/Ada_Drivers_Library/boards/MicroBit/obj/zfp_lib_Debug/libada_drivers_library.a(hal-i2c.o)
                0x0000000000009d68                hal__i2c__i2c_portB6s
 .rodata.hal__i2c__i2c_portT
                0x0000000000009d84        0x8 /home/nico/Downloads/Real-Time-Systems/Ada_Drivers_Library/boards/MicroBit/obj/zfp_lib_Debug/libada_drivers_library.a(hal-i2c.o)
                0x0000000000009d84                hal__i2c__i2c_portT
 .rodata.hal__spi__spi_portE10s
                0x0000000000009d8c       0x11 /home/nico/Downloads/Real-Time-Systems/Ada_Drivers_Library/boards/MicroBit/obj/zfp_lib_Debug/libada_drivers_library.a(hal-spi.o)
                0x0000000000009d8c                hal__spi__spi_portE10s
 *fill*         0x0000000000009d9d        0x3 
 .rodata.hal__spi__spi_portB14s
                0x0000000000009da0       0x1c /home/nico/Downloads/Real-Time-Systems/Ada_Drivers_Library/boards/MicroBit/obj/zfp_lib_Debug/libada_drivers_library.a(hal-spi.o)
                0x0000000000009da0                hal__spi__spi_portB14s
 .rodata.hal__spi__spi_portT
                0x0000000000009dbc        0x8 /home/nico/Downloads/Real-Time-Systems/Ada_Drivers_Library/boards/MicroBit/obj/zfp_lib_Debug/libada_drivers_library.a(hal-spi.o)
                0x0000000000009dbc                hal__spi__spi_portT
 .rodata.hal__time__delaysE2s
                0x0000000000009dc4       0x10 /home/nico/Downloads/Real-Time-Systems/Ada_Drivers_Library/boards/MicroBit/obj/zfp_lib_Debug/libada_drivers_library.a(hal-time.o)
                0x0000000000009dc4                hal__time__delaysE2s
 .rodata.hal__time__delaysB6s
                0x0000000000009dd4       0x1c /home/nico/Downloads/Real-Time-Systems/Ada_Drivers_Library/boards/MicroBit/obj/zfp_lib_Debug/libada_drivers_library.a(hal-time.o)
                0x0000000000009dd4                hal__time__delaysB6s
 .rodata.hal__time__delaysT
                0x0000000000009df0        0x8 /home/nico/Downloads/Real-Time-Systems/Ada_Drivers_Library/boards/MicroBit/obj/zfp_lib_Debug/libada_drivers_library.a(hal-time.o)
                0x0000000000009df0                hal__time__delaysT
 .rodata.hal__uart__uart_portE10s
                0x0000000000009df8       0x13 /home/nico/Downloads/Real-Time-Systems/Ada_Drivers_Library/boards/MicroBit/obj/zfp_lib_Debug/libada_drivers_library.a(hal-uart.o)
                0x0000000000009df8                hal__uart__uart_portE10s
 *fill*         0x0000000000009e0b        0x1 
 .rodata.hal__uart__uart_portB14s
                0x0000000000009e0c       0x1c /home/nico/Downloads/Real-Time-Systems/Ada_Drivers_Library/boards/MicroBit/obj/zfp_lib_Debug/libada_drivers_library.a(hal-uart.o)
                0x0000000000009e0c                hal__uart__uart_portB14s
 .rodata.hal__uart__uart_portT
                0x0000000000009e28        0x8 /home/nico/Downloads/Real-Time-Systems/Ada_Drivers_Library/boards/MicroBit/obj/zfp_lib_Debug/libada_drivers_library.a(hal-uart.o)
                0x0000000000009e28                hal__uart__uart_portT
 .rodata        0x0000000000009e30       0x18 /home/nico/opt/GNAT/2019-arm-elf/arm-eabi/lib/gnat/zfp-cortex-m0/adalib/libgnat.a(a-elchha.o)
 .rodata.__gnat_last_chance_handler.str1.4
                0x0000000000009e48       0x5c /home/nico/opt/GNAT/2019-arm-elf/arm-eabi/lib/gnat/zfp-cortex-m0/adalib/libgnat.a(a-elchha.o)
                                         0x5a (size before relaxing)
 .rodata.ada__exceptions__empty_c_string___UNC
                0x0000000000009ea4        0xc /home/nico/opt/GNAT/2019-arm-elf/arm-eabi/lib/gnat/zfp-cortex-m0/adalib/libgnat.a(a-except.o)
                0x0000000000009ea4                ada__exceptions__empty_c_string___UNC
 .rodata        0x0000000000009eb0       0x80 /home/nico/opt/GNAT/2019-arm-elf/bin/../lib/gcc/arm-eabi/7.4.1/thumb/v6-m/libgcc.a(divsf3.o)
 .rodata        0x0000000000009f30       0x40 /home/nico/opt/GNAT/2019-arm-elf/bin/../lib/gcc/arm-eabi/7.4.1/thumb/v6-m/libgcc.a(mulsf3.o)
                0x0000000000009f70                . = ALIGN (0x4)
                0x0000000000009f70                __rom_end = .
                0x0000000000009f70                __data_load = LOADADDR (.data)

.rel.dyn        0x0000000000009f70        0x0
 .rel.iplt      0x0000000000009f70        0x0 main.o

.data           0x0000000020000000       0xc4 load address 0x0000000000009f70
                0x0000000020000000                __data_start = .
 *(.data .data.* .gnu.linkonce.d*)
 .data.chore_E  0x0000000020000000        0x2 /home/nico/Downloads/Real-Time-Systems/driving/obj/chore.o
                0x0000000020000000                chore_E
 .data.accelerometer_E
                0x0000000020000002        0x2 /home/nico/Downloads/Real-Time-Systems/driving/obj/accelerometer.o
                0x0000000020000002                accelerometer_E
 .data.nav_E    0x0000000020000004        0x2 /home/nico/Downloads/Real-Time-Systems/driving/obj/nav.o
                0x0000000020000004                nav_E
 .data.qjs_E    0x0000000020000006        0x2 /home/nico/Downloads/Real-Time-Systems/driving/obj/qjs.o
                0x0000000020000006                qjs_E
 .data.sensor_E
                0x0000000020000008        0x2 /home/nico/Downloads/Real-Time-Systems/driving/obj/sensor.o
                0x0000000020000008                sensor_E
 .data.cortex_m__nvic_E
                0x000000002000000a        0x2 /home/nico/Downloads/Real-Time-Systems/Ada_Drivers_Library/boards/MicroBit/obj/zfp_lib_Debug/libada_drivers_library.a(cortex_m-nvic.o)
                0x000000002000000a                cortex_m__nvic_E
 .data.microbit__accelerometer_E
                0x000000002000000c        0x2 /home/nico/Downloads/Real-Time-Systems/Ada_Drivers_Library/boards/MicroBit/obj/zfp_lib_Debug/libada_drivers_library.a(microbit-accelerometer.o)
                0x000000002000000c                microbit__accelerometer_E
 .data.microbit__accelerometer__init_done
                0x000000002000000e        0x1 /home/nico/Downloads/Real-Time-Systems/Ada_Drivers_Library/boards/MicroBit/obj/zfp_lib_Debug/libada_drivers_library.a(microbit-accelerometer.o)
                0x000000002000000e                microbit__accelerometer__init_done
 *fill*         0x000000002000000f        0x1 
 .data.microbit__console_E
                0x0000000020000010        0x2 /home/nico/Downloads/Real-Time-Systems/Ada_Drivers_Library/boards/MicroBit/obj/zfp_lib_Debug/libada_drivers_library.a(microbit-console.o)
                0x0000000020000010                microbit__console_E
 .data.microbit__display_E
                0x0000000020000012        0x2 /home/nico/Downloads/Real-Time-Systems/Ada_Drivers_Library/boards/MicroBit/obj/zfp_lib_Debug/libada_drivers_library.a(microbit-display.o)
                0x0000000020000012                microbit__display_E
 .data.microbit__display__animation_step_duration_ms
                0x0000000020000014        0x4 /home/nico/Downloads/Real-Time-Systems/Ada_Drivers_Library/boards/MicroBit/obj/zfp_lib_Debug/libada_drivers_library.a(microbit-display.o)
                0x0000000020000014                microbit__display__animation_step_duration_ms
 .data.microbit__display__animation_elapsed
                0x0000000020000018        0x4 /home/nico/Downloads/Real-Time-Systems/Ada_Drivers_Library/boards/MicroBit/obj/zfp_lib_Debug/libada_drivers_library.a(microbit-display.o)
                0x0000000020000018                microbit__display__animation_elapsed
 .data.microbit__display__animation_state
                0x000000002000001c        0x1 /home/nico/Downloads/Real-Time-Systems/Ada_Drivers_Library/boards/MicroBit/obj/zfp_lib_Debug/libada_drivers_library.a(microbit-display.o)
                0x000000002000001c                microbit__display__animation_state
 *fill*         0x000000002000001d        0x3 
 .data.microbit__display__bitmap
                0x0000000020000020       0x37 /home/nico/Downloads/Real-Time-Systems/Ada_Drivers_Library/boards/MicroBit/obj/zfp_lib_Debug/libada_drivers_library.a(microbit-display.o)
                0x0000000020000020                microbit__display__bitmap
 *fill*         0x0000000020000057        0x1 
 .data.microbit__display__current_x
                0x0000000020000058        0x4 /home/nico/Downloads/Real-Time-Systems/Ada_Drivers_Library/boards/MicroBit/obj/zfp_lib_Debug/libada_drivers_library.a(microbit-display.o)
                0x0000000020000058                microbit__display__current_x
 .data.microbit__display__current_y
                0x000000002000005c        0x4 /home/nico/Downloads/Real-Time-Systems/Ada_Drivers_Library/boards/MicroBit/obj/zfp_lib_Debug/libada_drivers_library.a(microbit-display.o)
                0x000000002000005c                microbit__display__current_y
 .data.microbit__display__scroll_text_length
                0x0000000020000060        0x4 /home/nico/Downloads/Real-Time-Systems/Ada_Drivers_Library/boards/MicroBit/obj/zfp_lib_Debug/libada_drivers_library.a(microbit-display.o)
                0x0000000020000060                microbit__display__scroll_text_length
 .data.microbit__display__scroll_text_index
                0x0000000020000064        0x4 /home/nico/Downloads/Real-Time-Systems/Ada_Drivers_Library/boards/MicroBit/obj/zfp_lib_Debug/libada_drivers_library.a(microbit-display.o)
                0x0000000020000064                microbit__display__scroll_text_index
 .data.microbit__display__scroll_position
                0x0000000020000068        0x4 /home/nico/Downloads/Real-Time-Systems/Ada_Drivers_Library/boards/MicroBit/obj/zfp_lib_Debug/libada_drivers_library.a(microbit-display.o)
                0x0000000020000068                microbit__display__scroll_position
 .data.microbit__i2c_E
                0x000000002000006c        0x2 /home/nico/Downloads/Real-Time-Systems/Ada_Drivers_Library/boards/MicroBit/obj/zfp_lib_Debug/libada_drivers_library.a(microbit-i2c.o)
                0x000000002000006c                microbit__i2c_E
 .data.microbit__i2c__init_done
                0x000000002000006e        0x1 /home/nico/Downloads/Real-Time-Systems/Ada_Drivers_Library/boards/MicroBit/obj/zfp_lib_Debug/libada_drivers_library.a(microbit-i2c.o)
                0x000000002000006e                microbit__i2c__init_done
 *fill*         0x000000002000006f        0x1 
 .data.microbit__ios_E
                0x0000000020000070        0x2 /home/nico/Downloads/Real-Time-Systems/Ada_Drivers_Library/boards/MicroBit/obj/zfp_lib_Debug/libada_drivers_library.a(microbit-ios.o)
                0x0000000020000070                microbit__ios_E
 *fill*         0x0000000020000072        0x2 
 .data.microbit__ios__current_mode
                0x0000000020000074       0x15 /home/nico/Downloads/Real-Time-Systems/Ada_Drivers_Library/boards/MicroBit/obj/zfp_lib_Debug/libada_drivers_library.a(microbit-ios.o)
                0x0000000020000074                microbit__ios__current_mode
 *fill*         0x0000000020000089        0x3 
 .data.microbit__ios__pwm_period
                0x000000002000008c        0x4 /home/nico/Downloads/Real-Time-Systems/Ada_Drivers_Library/boards/MicroBit/obj/zfp_lib_Debug/libada_drivers_library.a(microbit-ios.o)
                0x000000002000008c                microbit__ios__pwm_period
 .data.microbit__servos_E
                0x0000000020000090        0x2 /home/nico/Downloads/Real-Time-Systems/Ada_Drivers_Library/boards/MicroBit/obj/zfp_lib_Debug/libada_drivers_library.a(microbit-servos.o)
                0x0000000020000090                microbit__servos_E
 .data.microbit__servos__analog_period_set
                0x0000000020000092        0x1 /home/nico/Downloads/Real-Time-Systems/Ada_Drivers_Library/boards/MicroBit/obj/zfp_lib_Debug/libada_drivers_library.a(microbit-servos.o)
                0x0000000020000092                microbit__servos__analog_period_set
 *fill*         0x0000000020000093        0x1 
 .data.microbit__time_E
                0x0000000020000094        0x2 /home/nico/Downloads/Real-Time-Systems/Ada_Drivers_Library/boards/MicroBit/obj/zfp_lib_Debug/libada_drivers_library.a(microbit-time.o)
                0x0000000020000094                microbit__time_E
 *fill*         0x0000000020000096        0x2 
 .data.microbit__time__clock_ms
                0x0000000020000098        0x8 /home/nico/Downloads/Real-Time-Systems/Ada_Drivers_Library/boards/MicroBit/obj/zfp_lib_Debug/libada_drivers_library.a(microbit-time.o)
 .data.mma8653_E
                0x00000000200000a0        0x2 /home/nico/Downloads/Real-Time-Systems/Ada_Drivers_Library/boards/MicroBit/obj/zfp_lib_Debug/libada_drivers_library.a(mma8653.o)
                0x00000000200000a0                mma8653_E
 .data.nrf51__adc_E
                0x00000000200000a2        0x2 /home/nico/Downloads/Real-Time-Systems/Ada_Drivers_Library/boards/MicroBit/obj/zfp_lib_Debug/libada_drivers_library.a(nrf51-adc.o)
                0x00000000200000a2                nrf51__adc_E
 .data.nrf51__clock_E
                0x00000000200000a4        0x2 /home/nico/Downloads/Real-Time-Systems/Ada_Drivers_Library/boards/MicroBit/obj/zfp_lib_Debug/libada_drivers_library.a(nrf51-clock.o)
                0x00000000200000a4                nrf51__clock_E
 .data.nrf51__device_E
                0x00000000200000a6        0x2 /home/nico/Downloads/Real-Time-Systems/Ada_Drivers_Library/boards/MicroBit/obj/zfp_lib_Debug/libada_drivers_library.a(nrf51-device.o)
                0x00000000200000a6                nrf51__device_E
 .data.nrf51__events_E
                0x00000000200000a8        0x2 /home/nico/Downloads/Real-Time-Systems/Ada_Drivers_Library/boards/MicroBit/obj/zfp_lib_Debug/libada_drivers_library.a(nrf51-events.o)
                0x00000000200000a8                nrf51__events_E
 .data.nrf51__gpio__tasks_and_events_E
                0x00000000200000aa        0x2 /home/nico/Downloads/Real-Time-Systems/Ada_Drivers_Library/boards/MicroBit/obj/zfp_lib_Debug/libada_drivers_library.a(nrf51-gpio-tasks_and_events.o)
                0x00000000200000aa                nrf51__gpio__tasks_and_events_E
 .data.nrf51__gpio_E
                0x00000000200000ac        0x2 /home/nico/Downloads/Real-Time-Systems/Ada_Drivers_Library/boards/MicroBit/obj/zfp_lib_Debug/libada_drivers_library.a(nrf51-gpio.o)
                0x00000000200000ac                nrf51__gpio_E
 .data.nrf51__interrupts_E
                0x00000000200000ae        0x2 /home/nico/Downloads/Real-Time-Systems/Ada_Drivers_Library/boards/MicroBit/obj/zfp_lib_Debug/libada_drivers_library.a(nrf51-interrupts.o)
                0x00000000200000ae                nrf51__interrupts_E
 .data.nrf51__ppi_E
                0x00000000200000b0        0x2 /home/nico/Downloads/Real-Time-Systems/Ada_Drivers_Library/boards/MicroBit/obj/zfp_lib_Debug/libada_drivers_library.a(nrf51-ppi.o)
                0x00000000200000b0                nrf51__ppi_E
 .data.nrf51__rtc_E
                0x00000000200000b2        0x2 /home/nico/Downloads/Real-Time-Systems/Ada_Drivers_Library/boards/MicroBit/obj/zfp_lib_Debug/libada_drivers_library.a(nrf51-rtc.o)
                0x00000000200000b2                nrf51__rtc_E
 .data.nrf51__spi_master_E
                0x00000000200000b4        0x2 /home/nico/Downloads/Real-Time-Systems/Ada_Drivers_Library/boards/MicroBit/obj/zfp_lib_Debug/libada_drivers_library.a(nrf51-spi_master.o)
                0x00000000200000b4                nrf51__spi_master_E
 .data.nrf51__tasks_E
                0x00000000200000b6        0x2 /home/nico/Downloads/Real-Time-Systems/Ada_Drivers_Library/boards/MicroBit/obj/zfp_lib_Debug/libada_drivers_library.a(nrf51-tasks.o)
                0x00000000200000b6                nrf51__tasks_E
 .data.nrf51__timers_E
                0x00000000200000b8        0x2 /home/nico/Downloads/Real-Time-Systems/Ada_Drivers_Library/boards/MicroBit/obj/zfp_lib_Debug/libada_drivers_library.a(nrf51-timers.o)
                0x00000000200000b8                nrf51__timers_E
 .data.nrf51__twi_E
                0x00000000200000ba        0x2 /home/nico/Downloads/Real-Time-Systems/Ada_Drivers_Library/boards/MicroBit/obj/zfp_lib_Debug/libada_drivers_library.a(nrf51-twi.o)
                0x00000000200000ba                nrf51__twi_E
 .data.nrf51__uart_E
                0x00000000200000bc        0x2 /home/nico/Downloads/Real-Time-Systems/Ada_Drivers_Library/boards/MicroBit/obj/zfp_lib_Debug/libada_drivers_library.a(nrf51-uart.o)
                0x00000000200000bc                nrf51__uart_E
 .data.system__text_io__initialized
                0x00000000200000be        0x1 /home/nico/opt/GNAT/2019-arm-elf/arm-eabi/lib/gnat/zfp-cortex-m0/adalib/libgnat.a(s-textio.o)
                0x00000000200000be                system__text_io__initialized
 *fill*         0x00000000200000bf        0x1 
 .data.system__semihosting__buffer_index
                0x00000000200000c0        0x2 /home/nico/opt/GNAT/2019-arm-elf/arm-eabi/lib/gnat/zfp-cortex-m0/adalib/libgnat.a(s-semiho.o)
                0x00000000200000c4                . = ALIGN (0x4)
 *fill*         0x00000000200000c2        0x2 
                0x00000000200000c4                __data_end = .
                0x0000000000000031                __data_words = ((__data_end - __data_start) >> 0x2)

.igot.plt       0x00000000200000c4        0x0 load address 0x000000000000a034
 .igot.plt      0x00000000200000c4        0x0 main.o

.bss            0x00000000200000c8      0xe70 load address 0x000000000000a034
                0x00000000200000c8                . = ALIGN (0x8)
                0x00000000200000c8                __bss_start = .
 *(.bss .bss.*)
 .bss.ada_main__sec_default_sized_stacks
                0x00000000200000c8      0x210 b__main.o
 .bss.sensor__duration_echo_us
                0x00000000200002d8        0x4 /home/nico/Downloads/Real-Time-Systems/driving/obj/sensor.o
 .bss.microbit__accelerometer__R1b
                0x00000000200002dc        0x4 /home/nico/Downloads/Real-Time-Systems/Ada_Drivers_Library/boards/MicroBit/obj/zfp_lib_Debug/libada_drivers_library.a(microbit-accelerometer.o)
                0x00000000200002dc                microbit__accelerometer(b &)
 .bss.microbit__accelerometer__acc
                0x00000000200002e0        0x8 /home/nico/Downloads/Real-Time-Systems/Ada_Drivers_Library/boards/MicroBit/obj/zfp_lib_Debug/libada_drivers_library.a(microbit-accelerometer.o)
                0x00000000200002e0                microbit__accelerometer__acc
 .bss.microbit__display__row_points
                0x00000000200002e8       0x18 /home/nico/Downloads/Real-Time-Systems/Ada_Drivers_Library/boards/MicroBit/obj/zfp_lib_Debug/libada_drivers_library.a(microbit-display.o)
                0x00000000200002e8                microbit__display__row_points
 .bss.microbit__display__column_points
                0x0000000020000300       0x48 /home/nico/Downloads/Real-Time-Systems/Ada_Drivers_Library/boards/MicroBit/obj/zfp_lib_Debug/libada_drivers_library.a(microbit-display.o)
                0x0000000020000300                microbit__display__column_points
 .bss.microbit__display__scroll_text_buffer
                0x0000000020000348       0x80 /home/nico/Downloads/Real-Time-Systems/Ada_Drivers_Library/boards/MicroBit/obj/zfp_lib_Debug/libada_drivers_library.a(microbit-display.o)
                0x0000000020000348                microbit__display__scroll_text_buffer
 .bss.microbit__ios__points
                0x00000000200003c8       0xa8 /home/nico/Downloads/Real-Time-Systems/Ada_Drivers_Library/boards/MicroBit/obj/zfp_lib_Debug/libada_drivers_library.a(microbit-ios.o)
                0x00000000200003c8                microbit__ios__points
 .bss.microbit__ios__pwm_alloc
                0x0000000020000470       0x15 /home/nico/Downloads/Real-Time-Systems/Ada_Drivers_Library/boards/MicroBit/obj/zfp_lib_Debug/libada_drivers_library.a(microbit-ios.o)
                0x0000000020000470                microbit__ios__pwm_alloc
 *fill*         0x0000000020000485        0x3 
 .bss.microbit__ios__pwms
                0x0000000020000488       0x24 /home/nico/Downloads/Real-Time-Systems/Ada_Drivers_Library/boards/MicroBit/obj/zfp_lib_Debug/libada_drivers_library.a(microbit-ios.o)
                0x0000000020000488                microbit__ios__pwms
 .bss.microbit__time__subscribers
                0x00000000200004ac       0x28 /home/nico/Downloads/Real-Time-Systems/Ada_Drivers_Library/boards/MicroBit/obj/zfp_lib_Debug/libada_drivers_library.a(microbit-time.o)
 .bss.microbit__time__delay_instance
                0x00000000200004d4        0x4 /home/nico/Downloads/Real-Time-Systems/Ada_Drivers_Library/boards/MicroBit/obj/zfp_lib_Debug/libada_drivers_library.a(microbit-time.o)
 .bss.nrf51__device__p00
                0x00000000200004d8        0x8 /home/nico/Downloads/Real-Time-Systems/Ada_Drivers_Library/boards/MicroBit/obj/zfp_lib_Debug/libada_drivers_library.a(nrf51-device.o)
                0x00000000200004d8                nrf51__device( *)
 .bss.nrf51__device__p01
                0x00000000200004e0        0x8 /home/nico/Downloads/Real-Time-Systems/Ada_Drivers_Library/boards/MicroBit/obj/zfp_lib_Debug/libada_drivers_library.a(nrf51-device.o)
                0x00000000200004e0                nrf51__device__p01
 .bss.nrf51__device__p02
                0x00000000200004e8        0x8 /home/nico/Downloads/Real-Time-Systems/Ada_Drivers_Library/boards/MicroBit/obj/zfp_lib_Debug/libada_drivers_library.a(nrf51-device.o)
                0x00000000200004e8                nrf51__device__p02
 .bss.nrf51__device__p03
                0x00000000200004f0        0x8 /home/nico/Downloads/Real-Time-Systems/Ada_Drivers_Library/boards/MicroBit/obj/zfp_lib_Debug/libada_drivers_library.a(nrf51-device.o)
                0x00000000200004f0                nrf51__device__p03
 .bss.nrf51__device__p04
                0x00000000200004f8        0x8 /home/nico/Downloads/Real-Time-Systems/Ada_Drivers_Library/boards/MicroBit/obj/zfp_lib_Debug/libada_drivers_library.a(nrf51-device.o)
                0x00000000200004f8                nrf51__device__p04
 .bss.nrf51__device__p05
                0x0000000020000500        0x8 /home/nico/Downloads/Real-Time-Systems/Ada_Drivers_Library/boards/MicroBit/obj/zfp_lib_Debug/libada_drivers_library.a(nrf51-device.o)
                0x0000000020000500                nrf51__device__p05
 .bss.nrf51__device__p06
                0x0000000020000508        0x8 /home/nico/Downloads/Real-Time-Systems/Ada_Drivers_Library/boards/MicroBit/obj/zfp_lib_Debug/libada_drivers_library.a(nrf51-device.o)
                0x0000000020000508                nrf51__device__p06
 .bss.nrf51__device__p07
                0x0000000020000510        0x8 /home/nico/Downloads/Real-Time-Systems/Ada_Drivers_Library/boards/MicroBit/obj/zfp_lib_Debug/libada_drivers_library.a(nrf51-device.o)
                0x0000000020000510                nrf51__device__p07
 .bss.nrf51__device__p08
                0x0000000020000518        0x8 /home/nico/Downloads/Real-Time-Systems/Ada_Drivers_Library/boards/MicroBit/obj/zfp_lib_Debug/libada_drivers_library.a(nrf51-device.o)
                0x0000000020000518                nrf51__device__p08
 .bss.nrf51__device__p09
                0x0000000020000520        0x8 /home/nico/Downloads/Real-Time-Systems/Ada_Drivers_Library/boards/MicroBit/obj/zfp_lib_Debug/libada_drivers_library.a(nrf51-device.o)
                0x0000000020000520                nrf51__device__p09
 .bss.nrf51__device__p10
                0x0000000020000528        0x8 /home/nico/Downloads/Real-Time-Systems/Ada_Drivers_Library/boards/MicroBit/obj/zfp_lib_Debug/libada_drivers_library.a(nrf51-device.o)
                0x0000000020000528                nrf51__device__p10
 .bss.nrf51__device__p11
                0x0000000020000530        0x8 /home/nico/Downloads/Real-Time-Systems/Ada_Drivers_Library/boards/MicroBit/obj/zfp_lib_Debug/libada_drivers_library.a(nrf51-device.o)
                0x0000000020000530                nrf51__device__p11
 .bss.nrf51__device__p12
                0x0000000020000538        0x8 /home/nico/Downloads/Real-Time-Systems/Ada_Drivers_Library/boards/MicroBit/obj/zfp_lib_Debug/libada_drivers_library.a(nrf51-device.o)
                0x0000000020000538                nrf51__device__p12
 .bss.nrf51__device__p13
                0x0000000020000540        0x8 /home/nico/Downloads/Real-Time-Systems/Ada_Drivers_Library/boards/MicroBit/obj/zfp_lib_Debug/libada_drivers_library.a(nrf51-device.o)
                0x0000000020000540                nrf51__device__p13
 .bss.nrf51__device__p14
                0x0000000020000548        0x8 /home/nico/Downloads/Real-Time-Systems/Ada_Drivers_Library/boards/MicroBit/obj/zfp_lib_Debug/libada_drivers_library.a(nrf51-device.o)
                0x0000000020000548                nrf51__device__p14
 .bss.nrf51__device__p15
                0x0000000020000550        0x8 /home/nico/Downloads/Real-Time-Systems/Ada_Drivers_Library/boards/MicroBit/obj/zfp_lib_Debug/libada_drivers_library.a(nrf51-device.o)
                0x0000000020000550                nrf51__device__p15
 .bss.nrf51__device__p16
                0x0000000020000558        0x8 /home/nico/Downloads/Real-Time-Systems/Ada_Drivers_Library/boards/MicroBit/obj/zfp_lib_Debug/libada_drivers_library.a(nrf51-device.o)
                0x0000000020000558                nrf51__device__p16
 .bss.nrf51__device__p17
                0x0000000020000560        0x8 /home/nico/Downloads/Real-Time-Systems/Ada_Drivers_Library/boards/MicroBit/obj/zfp_lib_Debug/libada_drivers_library.a(nrf51-device.o)
                0x0000000020000560                nrf51__device__p17
 .bss.nrf51__device__p18
                0x0000000020000568        0x8 /home/nico/Downloads/Real-Time-Systems/Ada_Drivers_Library/boards/MicroBit/obj/zfp_lib_Debug/libada_drivers_library.a(nrf51-device.o)
                0x0000000020000568                nrf51__device__p18
 .bss.nrf51__device__p19
                0x0000000020000570        0x8 /home/nico/Downloads/Real-Time-Systems/Ada_Drivers_Library/boards/MicroBit/obj/zfp_lib_Debug/libada_drivers_library.a(nrf51-device.o)
                0x0000000020000570                nrf51__device__p19
 .bss.nrf51__device__p20
                0x0000000020000578        0x8 /home/nico/Downloads/Real-Time-Systems/Ada_Drivers_Library/boards/MicroBit/obj/zfp_lib_Debug/libada_drivers_library.a(nrf51-device.o)
                0x0000000020000578                nrf51__device__p20
 .bss.nrf51__device__p21
                0x0000000020000580        0x8 /home/nico/Downloads/Real-Time-Systems/Ada_Drivers_Library/boards/MicroBit/obj/zfp_lib_Debug/libada_drivers_library.a(nrf51-device.o)
                0x0000000020000580                nrf51__device__p21
 .bss.nrf51__device__p22
                0x0000000020000588        0x8 /home/nico/Downloads/Real-Time-Systems/Ada_Drivers_Library/boards/MicroBit/obj/zfp_lib_Debug/libada_drivers_library.a(nrf51-device.o)
                0x0000000020000588                nrf51__device__p22
 .bss.nrf51__device__p23
                0x0000000020000590        0x8 /home/nico/Downloads/Real-Time-Systems/Ada_Drivers_Library/boards/MicroBit/obj/zfp_lib_Debug/libada_drivers_library.a(nrf51-device.o)
                0x0000000020000590                nrf51__device__p23
 .bss.nrf51__device__p24
                0x0000000020000598        0x8 /home/nico/Downloads/Real-Time-Systems/Ada_Drivers_Library/boards/MicroBit/obj/zfp_lib_Debug/libada_drivers_library.a(nrf51-device.o)
                0x0000000020000598                nrf51__device__p24
 .bss.nrf51__device__p25
                0x00000000200005a0        0x8 /home/nico/Downloads/Real-Time-Systems/Ada_Drivers_Library/boards/MicroBit/obj/zfp_lib_Debug/libada_drivers_library.a(nrf51-device.o)
                0x00000000200005a0                nrf51__device__p25
 .bss.nrf51__device__p26
                0x00000000200005a8        0x8 /home/nico/Downloads/Real-Time-Systems/Ada_Drivers_Library/boards/MicroBit/obj/zfp_lib_Debug/libada_drivers_library.a(nrf51-device.o)
                0x00000000200005a8                nrf51__device__p26
 .bss.nrf51__device__p27
                0x00000000200005b0        0x8 /home/nico/Downloads/Real-Time-Systems/Ada_Drivers_Library/boards/MicroBit/obj/zfp_lib_Debug/libada_drivers_library.a(nrf51-device.o)
                0x00000000200005b0                nrf51__device__p27
 .bss.nrf51__device__p28
                0x00000000200005b8        0x8 /home/nico/Downloads/Real-Time-Systems/Ada_Drivers_Library/boards/MicroBit/obj/zfp_lib_Debug/libada_drivers_library.a(nrf51-device.o)
                0x00000000200005b8                nrf51__device__p28
 .bss.nrf51__device__p29
                0x00000000200005c0        0x8 /home/nico/Downloads/Real-Time-Systems/Ada_Drivers_Library/boards/MicroBit/obj/zfp_lib_Debug/libada_drivers_library.a(nrf51-device.o)
                0x00000000200005c0                nrf51__device__p29
 .bss.nrf51__device__p30
                0x00000000200005c8        0x8 /home/nico/Downloads/Real-Time-Systems/Ada_Drivers_Library/boards/MicroBit/obj/zfp_lib_Debug/libada_drivers_library.a(nrf51-device.o)
                0x00000000200005c8                nrf51__device__p30
 .bss.nrf51__device__p31
                0x00000000200005d0        0x8 /home/nico/Downloads/Real-Time-Systems/Ada_Drivers_Library/boards/MicroBit/obj/zfp_lib_Debug/libada_drivers_library.a(nrf51-device.o)
                0x00000000200005d0                nrf51__device__p31
 .bss.nrf51__device__rtc_0
                0x00000000200005d8        0x4 /home/nico/Downloads/Real-Time-Systems/Ada_Drivers_Library/boards/MicroBit/obj/zfp_lib_Debug/libada_drivers_library.a(nrf51-device.o)
                0x00000000200005d8                nrf51__device__rtc_0
 .bss.nrf51__device__rtc_1
                0x00000000200005dc        0x4 /home/nico/Downloads/Real-Time-Systems/Ada_Drivers_Library/boards/MicroBit/obj/zfp_lib_Debug/libada_drivers_library.a(nrf51-device.o)
                0x00000000200005dc                nrf51__device__rtc_1
 .bss.nrf51__device__twi_0
                0x00000000200005e0        0xc /home/nico/Downloads/Real-Time-Systems/Ada_Drivers_Library/boards/MicroBit/obj/zfp_lib_Debug/libada_drivers_library.a(nrf51-device.o)
                0x00000000200005e0                nrf51__device__twi_0
 .bss.nrf51__device__twi_1
                0x00000000200005ec        0xc /home/nico/Downloads/Real-Time-Systems/Ada_Drivers_Library/boards/MicroBit/obj/zfp_lib_Debug/libada_drivers_library.a(nrf51-device.o)
                0x00000000200005ec                nrf51__device__twi_1
 .bss.nrf51__device__spi_master_0
                0x00000000200005f8        0x8 /home/nico/Downloads/Real-Time-Systems/Ada_Drivers_Library/boards/MicroBit/obj/zfp_lib_Debug/libada_drivers_library.a(nrf51-device.o)
                0x00000000200005f8                nrf51__device__spi_master_0
 .bss.nrf51__device__spi_master_1
                0x0000000020000600        0x8 /home/nico/Downloads/Real-Time-Systems/Ada_Drivers_Library/boards/MicroBit/obj/zfp_lib_Debug/libada_drivers_library.a(nrf51-device.o)
                0x0000000020000600                nrf51__device__spi_master_1
 .bss.nrf51__device__timer_0
                0x0000000020000608        0x8 /home/nico/Downloads/Real-Time-Systems/Ada_Drivers_Library/boards/MicroBit/obj/zfp_lib_Debug/libada_drivers_library.a(nrf51-device.o)
                0x0000000020000608                nrf51__device__timer_0
 .bss.nrf51__device__timer_1
                0x0000000020000610        0x8 /home/nico/Downloads/Real-Time-Systems/Ada_Drivers_Library/boards/MicroBit/obj/zfp_lib_Debug/libada_drivers_library.a(nrf51-device.o)
                0x0000000020000610                nrf51__device__timer_1
 .bss.nrf51__device__timer_2
                0x0000000020000618        0x8 /home/nico/Downloads/Real-Time-Systems/Ada_Drivers_Library/boards/MicroBit/obj/zfp_lib_Debug/libada_drivers_library.a(nrf51-device.o)
                0x0000000020000618                nrf51__device__timer_2
 .bss.nrf51__device__uart_0
                0x0000000020000620        0xc /home/nico/Downloads/Real-Time-Systems/Ada_Drivers_Library/boards/MicroBit/obj/zfp_lib_Debug/libada_drivers_library.a(nrf51-device.o)
                0x0000000020000620                nrf51__device__uart_0
 .bss.nrf51__interrupts__handlers
                0x000000002000062c       0x80 /home/nico/Downloads/Real-Time-Systems/Ada_Drivers_Library/boards/MicroBit/obj/zfp_lib_Debug/libada_drivers_library.a(nrf51-interrupts.o)
 .bss.__gnat_binder_ss_count
                0x00000000200006ac        0x4 /home/nico/opt/GNAT/2019-arm-elf/arm-eabi/lib/gnat/zfp-cortex-m0/adalib/libgnat.a(s-secsta.o)
                0x00000000200006ac                __gnat_binder_ss_count
 .bss.__gnat_default_ss_pool
                0x00000000200006b0        0x4 /home/nico/opt/GNAT/2019-arm-elf/arm-eabi/lib/gnat/zfp-cortex-m0/adalib/libgnat.a(s-secsta.o)
                0x00000000200006b0                __gnat_default_ss_pool
 .bss.__gnat_default_ss_size
                0x00000000200006b4        0x4 /home/nico/opt/GNAT/2019-arm-elf/arm-eabi/lib/gnat/zfp-cortex-m0/adalib/libgnat.a(s-secsta.o)
                0x00000000200006b4                __gnat_default_ss_size
 .bss.system__semihosting__buffer
                0x00000000200006b8       0x80 /home/nico/opt/GNAT/2019-arm-elf/arm-eabi/lib/gnat/zfp-cortex-m0/adalib/libgnat.a(s-semiho.o)
 *(COMMON)
                0x0000000020000738                . = ALIGN (0x8)
                0x0000000020000738                __bss_end = .
                0x0000000020000738                __interrupt_stack_start = .
 *(.interrupt_stacks)
                0x0000000020000738                . = ALIGN (0x8)
                0x0000000020000738                __interrupt_stack_end = .
                0x0000000020000738                __stack_start = .
                0x0000000020000f38                . = (. + DEFINED (__stack_size)?__stack_size:_DEFAULT_STACK_SIZE)
 *fill*         0x0000000020000738      0x800 
                0x0000000020000f38                . = ALIGN (0x8)
                0x0000000020000f38                __stack_end = .
                0x0000000020000f38                _end = .
                0x0000000020000f38                __heap_start = .
                0x0000000020004000                __heap_end = (ORIGIN (ram) + LENGTH (ram))
                0x000000000000019c                __bss_words = ((__bss_end - __bss_start) >> 0x2)

.debug
 *(.debug)

.line
 *(.line)

.debug_srcinfo
 *(.debug_srcinfo)

.debug_sfnames
 *(.debug_sfnames)

.debug_aranges  0x0000000000000000      0xcb8
 *(.debug_aranges)
 .debug_aranges
                0x0000000000000000       0x20 main.o
 .debug_aranges
                0x0000000000000020       0x30 b__main.o
 .debug_aranges
                0x0000000000000050       0x20 /home/nico/Downloads/Real-Time-Systems/driving/obj/chore.o
 .debug_aranges
                0x0000000000000070       0x50 /home/nico/Downloads/Real-Time-Systems/driving/obj/accelerometer.o
 .debug_aranges
                0x00000000000000c0       0x78 /home/nico/Downloads/Real-Time-Systems/driving/obj/nav.o
 .debug_aranges
                0x0000000000000138       0x20 /home/nico/Downloads/Real-Time-Systems/driving/obj/qjs.o
 .debug_aranges
                0x0000000000000158       0x40 /home/nico/Downloads/Real-Time-Systems/driving/obj/sensor.o
 .debug_aranges
                0x0000000000000198       0x50 /home/nico/Downloads/Real-Time-Systems/Ada_Drivers_Library/boards/MicroBit/obj/zfp_lib_Debug/libada_drivers_library.a(cortex_m-nvic.o)
 .debug_aranges
                0x00000000000001e8       0x40 /home/nico/Downloads/Real-Time-Systems/Ada_Drivers_Library/boards/MicroBit/obj/zfp_lib_Debug/libada_drivers_library.a(microbit-accelerometer.o)
 .debug_aranges
                0x0000000000000228       0x48 /home/nico/Downloads/Real-Time-Systems/Ada_Drivers_Library/boards/MicroBit/obj/zfp_lib_Debug/libada_drivers_library.a(microbit-console.o)
 .debug_aranges
                0x0000000000000270       0x88 /home/nico/Downloads/Real-Time-Systems/Ada_Drivers_Library/boards/MicroBit/obj/zfp_lib_Debug/libada_drivers_library.a(microbit-display.o)
 .debug_aranges
                0x00000000000002f8       0x38 /home/nico/Downloads/Real-Time-Systems/Ada_Drivers_Library/boards/MicroBit/obj/zfp_lib_Debug/libada_drivers_library.a(microbit-i2c.o)
 .debug_aranges
                0x0000000000000330       0xa0 /home/nico/Downloads/Real-Time-Systems/Ada_Drivers_Library/boards/MicroBit/obj/zfp_lib_Debug/libada_drivers_library.a(microbit-ios.o)
 .debug_aranges
                0x00000000000003d0       0x30 /home/nico/Downloads/Real-Time-Systems/Ada_Drivers_Library/boards/MicroBit/obj/zfp_lib_Debug/libada_drivers_library.a(microbit-servos.o)
 .debug_aranges
                0x0000000000000400       0x98 /home/nico/Downloads/Real-Time-Systems/Ada_Drivers_Library/boards/MicroBit/obj/zfp_lib_Debug/libada_drivers_library.a(microbit-time.o)
 .debug_aranges
                0x0000000000000498       0x48 /home/nico/Downloads/Real-Time-Systems/Ada_Drivers_Library/boards/MicroBit/obj/zfp_lib_Debug/libada_drivers_library.a(mma8653.o)
 .debug_aranges
                0x00000000000004e0       0x48 /home/nico/Downloads/Real-Time-Systems/Ada_Drivers_Library/boards/MicroBit/obj/zfp_lib_Debug/libada_drivers_library.a(nrf51-adc.o)
 .debug_aranges
                0x0000000000000528       0x70 /home/nico/Downloads/Real-Time-Systems/Ada_Drivers_Library/boards/MicroBit/obj/zfp_lib_Debug/libada_drivers_library.a(nrf51-clock.o)
 .debug_aranges
                0x0000000000000598       0x20 /home/nico/Downloads/Real-Time-Systems/Ada_Drivers_Library/boards/MicroBit/obj/zfp_lib_Debug/libada_drivers_library.a(nrf51-device.o)
 .debug_aranges
                0x00000000000005b8       0x48 /home/nico/Downloads/Real-Time-Systems/Ada_Drivers_Library/boards/MicroBit/obj/zfp_lib_Debug/libada_drivers_library.a(nrf51-events.o)
 .debug_aranges
                0x0000000000000600       0x40 /home/nico/Downloads/Real-Time-Systems/Ada_Drivers_Library/boards/MicroBit/obj/zfp_lib_Debug/libada_drivers_library.a(nrf51-gpio-tasks_and_events.o)
 .debug_aranges
                0x0000000000000640       0x68 /home/nico/Downloads/Real-Time-Systems/Ada_Drivers_Library/boards/MicroBit/obj/zfp_lib_Debug/libada_drivers_library.a(nrf51-gpio.o)
 .debug_aranges
                0x00000000000006a8       0x50 /home/nico/Downloads/Real-Time-Systems/Ada_Drivers_Library/boards/MicroBit/obj/zfp_lib_Debug/libada_drivers_library.a(nrf51-interrupts.o)
 .debug_aranges
                0x00000000000006f8       0x50 /home/nico/Downloads/Real-Time-Systems/Ada_Drivers_Library/boards/MicroBit/obj/zfp_lib_Debug/libada_drivers_library.a(nrf51-ppi.o)
 .debug_aranges
                0x0000000000000748       0x60 /home/nico/Downloads/Real-Time-Systems/Ada_Drivers_Library/boards/MicroBit/obj/zfp_lib_Debug/libada_drivers_library.a(nrf51-rtc.o)
 .debug_aranges
                0x00000000000007a8       0x78 /home/nico/Downloads/Real-Time-Systems/Ada_Drivers_Library/boards/MicroBit/obj/zfp_lib_Debug/libada_drivers_library.a(nrf51-spi_master.o)
 .debug_aranges
                0x0000000000000820       0x30 /home/nico/Downloads/Real-Time-Systems/Ada_Drivers_Library/boards/MicroBit/obj/zfp_lib_Debug/libada_drivers_library.a(nrf51-tasks.o)
 .debug_aranges
                0x0000000000000850       0xb8 /home/nico/Downloads/Real-Time-Systems/Ada_Drivers_Library/boards/MicroBit/obj/zfp_lib_Debug/libada_drivers_library.a(nrf51-timers.o)
 .debug_aranges
                0x0000000000000908       0x68 /home/nico/Downloads/Real-Time-Systems/Ada_Drivers_Library/boards/MicroBit/obj/zfp_lib_Debug/libada_drivers_library.a(nrf51-twi.o)
 .debug_aranges
                0x0000000000000970       0x68 /home/nico/Downloads/Real-Time-Systems/Ada_Drivers_Library/boards/MicroBit/obj/zfp_lib_Debug/libada_drivers_library.a(nrf51-uart.o)
 .debug_aranges
                0x00000000000009d8       0x18 /home/nico/Downloads/Real-Time-Systems/Ada_Drivers_Library/boards/MicroBit/obj/zfp_lib_Debug/libada_drivers_library.a(nrf51_svd-gpio.o)
 .debug_aranges
                0x00000000000009f0       0x18 /home/nico/Downloads/Real-Time-Systems/Ada_Drivers_Library/boards/MicroBit/obj/zfp_lib_Debug/libada_drivers_library.a(nrf51_svd-twi.o)
 .debug_aranges
                0x0000000000000a08       0x18 /home/nico/Downloads/Real-Time-Systems/Ada_Drivers_Library/boards/MicroBit/obj/zfp_lib_Debug/libada_drivers_library.a(hal-gpio.o)
 .debug_aranges
                0x0000000000000a20       0x18 /home/nico/Downloads/Real-Time-Systems/Ada_Drivers_Library/boards/MicroBit/obj/zfp_lib_Debug/libada_drivers_library.a(hal-i2c.o)
 .debug_aranges
                0x0000000000000a38       0x18 /home/nico/Downloads/Real-Time-Systems/Ada_Drivers_Library/boards/MicroBit/obj/zfp_lib_Debug/libada_drivers_library.a(hal-spi.o)
 .debug_aranges
                0x0000000000000a50       0x18 /home/nico/Downloads/Real-Time-Systems/Ada_Drivers_Library/boards/MicroBit/obj/zfp_lib_Debug/libada_drivers_library.a(hal-time.o)
 .debug_aranges
                0x0000000000000a68       0x18 /home/nico/Downloads/Real-Time-Systems/Ada_Drivers_Library/boards/MicroBit/obj/zfp_lib_Debug/libada_drivers_library.a(hal-uart.o)
 .debug_aranges
                0x0000000000000a80       0x18 /home/nico/opt/GNAT/2019-arm-elf/arm-eabi/lib/gnat/zfp-cortex-m0/adalib/libgnat.a(a-except.o)
 .debug_aranges
                0x0000000000000a98       0x20 /home/nico/opt/GNAT/2019-arm-elf/arm-eabi/lib/gnat/zfp-cortex-m0/adalib/libgnat.a(s-assert.o)
 .debug_aranges
                0x0000000000000ab8       0x20 /home/nico/opt/GNAT/2019-arm-elf/bin/../lib/gcc/arm-eabi/7.4.1/thumb/v6-m/libgcc.a(_divsi3.o)
 .debug_aranges
                0x0000000000000ad8       0x20 /home/nico/opt/GNAT/2019-arm-elf/bin/../lib/gcc/arm-eabi/7.4.1/thumb/v6-m/libgcc.a(_dvmd_tls.o)
 .debug_aranges
                0x0000000000000af8       0x20 /home/nico/opt/GNAT/2019-arm-elf/bin/../lib/gcc/arm-eabi/7.4.1/thumb/v6-m/libgcc.a(_arm_cmpsf2.o)
 .debug_aranges
                0x0000000000000b18       0x20 /home/nico/opt/GNAT/2019-arm-elf/bin/../lib/gcc/arm-eabi/7.4.1/thumb/v6-m/libgcc.a(_fixunssfsi.o)
 .debug_aranges
                0x0000000000000b38       0x20 /home/nico/opt/GNAT/2019-arm-elf/bin/../lib/gcc/arm-eabi/7.4.1/thumb/v6-m/libgcc.a(addsf3.o)
 .debug_aranges
                0x0000000000000b58       0x20 /home/nico/opt/GNAT/2019-arm-elf/bin/../lib/gcc/arm-eabi/7.4.1/thumb/v6-m/libgcc.a(divsf3.o)
 .debug_aranges
                0x0000000000000b78       0x20 /home/nico/opt/GNAT/2019-arm-elf/bin/../lib/gcc/arm-eabi/7.4.1/thumb/v6-m/libgcc.a(eqsf2.o)
 .debug_aranges
                0x0000000000000b98       0x20 /home/nico/opt/GNAT/2019-arm-elf/bin/../lib/gcc/arm-eabi/7.4.1/thumb/v6-m/libgcc.a(gesf2.o)
 .debug_aranges
                0x0000000000000bb8       0x20 /home/nico/opt/GNAT/2019-arm-elf/bin/../lib/gcc/arm-eabi/7.4.1/thumb/v6-m/libgcc.a(lesf2.o)
 .debug_aranges
                0x0000000000000bd8       0x20 /home/nico/opt/GNAT/2019-arm-elf/bin/../lib/gcc/arm-eabi/7.4.1/thumb/v6-m/libgcc.a(mulsf3.o)
 .debug_aranges
                0x0000000000000bf8       0x20 /home/nico/opt/GNAT/2019-arm-elf/bin/../lib/gcc/arm-eabi/7.4.1/thumb/v6-m/libgcc.a(subsf3.o)
 .debug_aranges
                0x0000000000000c18       0x20 /home/nico/opt/GNAT/2019-arm-elf/bin/../lib/gcc/arm-eabi/7.4.1/thumb/v6-m/libgcc.a(unordsf2.o)
 .debug_aranges
                0x0000000000000c38       0x20 /home/nico/opt/GNAT/2019-arm-elf/bin/../lib/gcc/arm-eabi/7.4.1/thumb/v6-m/libgcc.a(fixsfsi.o)
 .debug_aranges
                0x0000000000000c58       0x20 /home/nico/opt/GNAT/2019-arm-elf/bin/../lib/gcc/arm-eabi/7.4.1/thumb/v6-m/libgcc.a(floatsisf.o)
 .debug_aranges
                0x0000000000000c78       0x20 /home/nico/opt/GNAT/2019-arm-elf/bin/../lib/gcc/arm-eabi/7.4.1/thumb/v6-m/libgcc.a(floatunsisf.o)
 .debug_aranges
                0x0000000000000c98       0x20 /home/nico/opt/GNAT/2019-arm-elf/bin/../lib/gcc/arm-eabi/7.4.1/thumb/v6-m/libgcc.a(_clzsi2.o)

.debug_pubnames
 *(.debug_pubnames)

.debug_info     0x0000000000000000    0x12ce8
 *(.debug_info .gnu.linkonce.wi.*)
 .debug_info    0x0000000000000000      0x2a0 main.o
 .debug_info    0x00000000000002a0      0x5c3 b__main.o
 .debug_info    0x0000000000000863      0x231 /home/nico/Downloads/Real-Time-Systems/driving/obj/chore.o
 .debug_info    0x0000000000000a94      0x170 /home/nico/Downloads/Real-Time-Systems/driving/obj/accelerometer.o
 .debug_info    0x0000000000000c04      0x353 /home/nico/Downloads/Real-Time-Systems/driving/obj/nav.o
 .debug_info    0x0000000000000f57      0x34b /home/nico/Downloads/Real-Time-Systems/driving/obj/qjs.o
 .debug_info    0x00000000000012a2      0x1cf /home/nico/Downloads/Real-Time-Systems/driving/obj/sensor.o
 .debug_info    0x0000000000001471      0x2e1 /home/nico/Downloads/Real-Time-Systems/Ada_Drivers_Library/boards/MicroBit/obj/zfp_lib_Debug/libada_drivers_library.a(cortex_m-nvic.o)
 .debug_info    0x0000000000001752      0x264 /home/nico/Downloads/Real-Time-Systems/Ada_Drivers_Library/boards/MicroBit/obj/zfp_lib_Debug/libada_drivers_library.a(microbit-accelerometer.o)
 .debug_info    0x00000000000019b6      0xe4f /home/nico/Downloads/Real-Time-Systems/Ada_Drivers_Library/boards/MicroBit/obj/zfp_lib_Debug/libada_drivers_library.a(microbit-console.o)
 .debug_info    0x0000000000002805      0x8df /home/nico/Downloads/Real-Time-Systems/Ada_Drivers_Library/boards/MicroBit/obj/zfp_lib_Debug/libada_drivers_library.a(microbit-display.o)
 .debug_info    0x00000000000030e4      0xadb /home/nico/Downloads/Real-Time-Systems/Ada_Drivers_Library/boards/MicroBit/obj/zfp_lib_Debug/libada_drivers_library.a(microbit-i2c.o)
 .debug_info    0x0000000000003bbf     0x1118 /home/nico/Downloads/Real-Time-Systems/Ada_Drivers_Library/boards/MicroBit/obj/zfp_lib_Debug/libada_drivers_library.a(microbit-ios.o)
 .debug_info    0x0000000000004cd7       0xf9 /home/nico/Downloads/Real-Time-Systems/Ada_Drivers_Library/boards/MicroBit/obj/zfp_lib_Debug/libada_drivers_library.a(microbit-servos.o)
 .debug_info    0x0000000000004dd0      0x557 /home/nico/Downloads/Real-Time-Systems/Ada_Drivers_Library/boards/MicroBit/obj/zfp_lib_Debug/libada_drivers_library.a(microbit-time.o)
 .debug_info    0x0000000000005327      0x835 /home/nico/Downloads/Real-Time-Systems/Ada_Drivers_Library/boards/MicroBit/obj/zfp_lib_Debug/libada_drivers_library.a(mma8653.o)
 .debug_info    0x0000000000005b5c      0x225 /home/nico/Downloads/Real-Time-Systems/Ada_Drivers_Library/boards/MicroBit/obj/zfp_lib_Debug/libada_drivers_library.a(nrf51-adc.o)
 .debug_info    0x0000000000005d81      0x1e4 /home/nico/Downloads/Real-Time-Systems/Ada_Drivers_Library/boards/MicroBit/obj/zfp_lib_Debug/libada_drivers_library.a(nrf51-clock.o)
 .debug_info    0x0000000000005f65     0x2ba6 /home/nico/Downloads/Real-Time-Systems/Ada_Drivers_Library/boards/MicroBit/obj/zfp_lib_Debug/libada_drivers_library.a(nrf51-device.o)
 .debug_info    0x0000000000008b0b      0x807 /home/nico/Downloads/Real-Time-Systems/Ada_Drivers_Library/boards/MicroBit/obj/zfp_lib_Debug/libada_drivers_library.a(nrf51-events.o)
 .debug_info    0x0000000000009312      0x369 /home/nico/Downloads/Real-Time-Systems/Ada_Drivers_Library/boards/MicroBit/obj/zfp_lib_Debug/libada_drivers_library.a(nrf51-gpio-tasks_and_events.o)
 .debug_info    0x000000000000967b      0x66a /home/nico/Downloads/Real-Time-Systems/Ada_Drivers_Library/boards/MicroBit/obj/zfp_lib_Debug/libada_drivers_library.a(nrf51-gpio.o)
 .debug_info    0x0000000000009ce5      0x2b9 /home/nico/Downloads/Real-Time-Systems/Ada_Drivers_Library/boards/MicroBit/obj/zfp_lib_Debug/libada_drivers_library.a(nrf51-interrupts.o)
 .debug_info    0x0000000000009f9e      0x2bc /home/nico/Downloads/Real-Time-Systems/Ada_Drivers_Library/boards/MicroBit/obj/zfp_lib_Debug/libada_drivers_library.a(nrf51-ppi.o)
 .debug_info    0x000000000000a25a      0xce6 /home/nico/Downloads/Real-Time-Systems/Ada_Drivers_Library/boards/MicroBit/obj/zfp_lib_Debug/libada_drivers_library.a(nrf51-rtc.o)
 .debug_info    0x000000000000af40      0xef9 /home/nico/Downloads/Real-Time-Systems/Ada_Drivers_Library/boards/MicroBit/obj/zfp_lib_Debug/libada_drivers_library.a(nrf51-spi_master.o)
 .debug_info    0x000000000000be39      0x834 /home/nico/Downloads/Real-Time-Systems/Ada_Drivers_Library/boards/MicroBit/obj/zfp_lib_Debug/libada_drivers_library.a(nrf51-tasks.o)
 .debug_info    0x000000000000c66d      0xc88 /home/nico/Downloads/Real-Time-Systems/Ada_Drivers_Library/boards/MicroBit/obj/zfp_lib_Debug/libada_drivers_library.a(nrf51-timers.o)
 .debug_info    0x000000000000d2f5      0xf67 /home/nico/Downloads/Real-Time-Systems/Ada_Drivers_Library/boards/MicroBit/obj/zfp_lib_Debug/libada_drivers_library.a(nrf51-twi.o)
 .debug_info    0x000000000000e25c      0xff5 /home/nico/Downloads/Real-Time-Systems/Ada_Drivers_Library/boards/MicroBit/obj/zfp_lib_Debug/libada_drivers_library.a(nrf51-uart.o)
 .debug_info    0x000000000000f251      0x6c6 /home/nico/Downloads/Real-Time-Systems/Ada_Drivers_Library/boards/MicroBit/obj/zfp_lib_Debug/libada_drivers_library.a(nrf51_svd-gpio.o)
 .debug_info    0x000000000000f917      0x889 /home/nico/Downloads/Real-Time-Systems/Ada_Drivers_Library/boards/MicroBit/obj/zfp_lib_Debug/libada_drivers_library.a(nrf51_svd-twi.o)
 .debug_info    0x00000000000101a0       0x3a /home/nico/Downloads/Real-Time-Systems/Ada_Drivers_Library/boards/MicroBit/obj/zfp_lib_Debug/libada_drivers_library.a(hal-gpio.o)
 .debug_info    0x00000000000101da       0x5d /home/nico/Downloads/Real-Time-Systems/Ada_Drivers_Library/boards/MicroBit/obj/zfp_lib_Debug/libada_drivers_library.a(hal-i2c.o)
 .debug_info    0x0000000000010237       0x56 /home/nico/Downloads/Real-Time-Systems/Ada_Drivers_Library/boards/MicroBit/obj/zfp_lib_Debug/libada_drivers_library.a(hal-spi.o)
 .debug_info    0x000000000001028d       0x3a /home/nico/Downloads/Real-Time-Systems/Ada_Drivers_Library/boards/MicroBit/obj/zfp_lib_Debug/libada_drivers_library.a(hal-time.o)
 .debug_info    0x00000000000102c7       0x4f /home/nico/Downloads/Real-Time-Systems/Ada_Drivers_Library/boards/MicroBit/obj/zfp_lib_Debug/libada_drivers_library.a(hal-uart.o)
 .debug_info    0x0000000000010316      0x157 /home/nico/opt/GNAT/2019-arm-elf/arm-eabi/lib/gnat/zfp-cortex-m0/adalib/libgnat.a(a-except.o)
 .debug_info    0x000000000001046d      0x1db /home/nico/opt/GNAT/2019-arm-elf/arm-eabi/lib/gnat/zfp-cortex-m0/adalib/libgnat.a(s-assert.o)
 .debug_info    0x0000000000010648       0x26 /home/nico/opt/GNAT/2019-arm-elf/bin/../lib/gcc/arm-eabi/7.4.1/thumb/v6-m/libgcc.a(_divsi3.o)
 .debug_info    0x000000000001066e       0x26 /home/nico/opt/GNAT/2019-arm-elf/bin/../lib/gcc/arm-eabi/7.4.1/thumb/v6-m/libgcc.a(_dvmd_tls.o)
 .debug_info    0x0000000000010694       0x26 /home/nico/opt/GNAT/2019-arm-elf/bin/../lib/gcc/arm-eabi/7.4.1/thumb/v6-m/libgcc.a(_arm_cmpsf2.o)
 .debug_info    0x00000000000106ba      0x9e4 /home/nico/opt/GNAT/2019-arm-elf/bin/../lib/gcc/arm-eabi/7.4.1/thumb/v6-m/libgcc.a(_fixunssfsi.o)
 .debug_info    0x000000000001109e      0x32c /home/nico/opt/GNAT/2019-arm-elf/bin/../lib/gcc/arm-eabi/7.4.1/thumb/v6-m/libgcc.a(addsf3.o)
 .debug_info    0x00000000000113ca      0x32d /home/nico/opt/GNAT/2019-arm-elf/bin/../lib/gcc/arm-eabi/7.4.1/thumb/v6-m/libgcc.a(divsf3.o)
 .debug_info    0x00000000000116f7      0x228 /home/nico/opt/GNAT/2019-arm-elf/bin/../lib/gcc/arm-eabi/7.4.1/thumb/v6-m/libgcc.a(eqsf2.o)
 .debug_info    0x000000000001191f      0x234 /home/nico/opt/GNAT/2019-arm-elf/bin/../lib/gcc/arm-eabi/7.4.1/thumb/v6-m/libgcc.a(gesf2.o)
 .debug_info    0x0000000000011b53      0x237 /home/nico/opt/GNAT/2019-arm-elf/bin/../lib/gcc/arm-eabi/7.4.1/thumb/v6-m/libgcc.a(lesf2.o)
 .debug_info    0x0000000000011d8a      0x397 /home/nico/opt/GNAT/2019-arm-elf/bin/../lib/gcc/arm-eabi/7.4.1/thumb/v6-m/libgcc.a(mulsf3.o)
 .debug_info    0x0000000000012121      0x32c /home/nico/opt/GNAT/2019-arm-elf/bin/../lib/gcc/arm-eabi/7.4.1/thumb/v6-m/libgcc.a(subsf3.o)
 .debug_info    0x000000000001244d      0x21d /home/nico/opt/GNAT/2019-arm-elf/bin/../lib/gcc/arm-eabi/7.4.1/thumb/v6-m/libgcc.a(unordsf2.o)
 .debug_info    0x000000000001266a      0x1d0 /home/nico/opt/GNAT/2019-arm-elf/bin/../lib/gcc/arm-eabi/7.4.1/thumb/v6-m/libgcc.a(fixsfsi.o)
 .debug_info    0x000000000001283a      0x24a /home/nico/opt/GNAT/2019-arm-elf/bin/../lib/gcc/arm-eabi/7.4.1/thumb/v6-m/libgcc.a(floatsisf.o)
 .debug_info    0x0000000000012a84      0x23e /home/nico/opt/GNAT/2019-arm-elf/bin/../lib/gcc/arm-eabi/7.4.1/thumb/v6-m/libgcc.a(floatunsisf.o)
 .debug_info    0x0000000000012cc2       0x26 /home/nico/opt/GNAT/2019-arm-elf/bin/../lib/gcc/arm-eabi/7.4.1/thumb/v6-m/libgcc.a(_clzsi2.o)

.debug_abbrev   0x0000000000000000     0x5030
 *(.debug_abbrev)
 .debug_abbrev  0x0000000000000000      0x131 main.o
 .debug_abbrev  0x0000000000000131      0x202 b__main.o
 .debug_abbrev  0x0000000000000333      0x129 /home/nico/Downloads/Real-Time-Systems/driving/obj/chore.o
 .debug_abbrev  0x000000000000045c       0xc4 /home/nico/Downloads/Real-Time-Systems/driving/obj/accelerometer.o
 .debug_abbrev  0x0000000000000520       0xc5 /home/nico/Downloads/Real-Time-Systems/driving/obj/nav.o
 .debug_abbrev  0x00000000000005e5      0x162 /home/nico/Downloads/Real-Time-Systems/driving/obj/qjs.o
 .debug_abbrev  0x0000000000000747       0xb7 /home/nico/Downloads/Real-Time-Systems/driving/obj/sensor.o
 .debug_abbrev  0x00000000000007fe      0x1bc /home/nico/Downloads/Real-Time-Systems/Ada_Drivers_Library/boards/MicroBit/obj/zfp_lib_Debug/libada_drivers_library.a(cortex_m-nvic.o)
 .debug_abbrev  0x00000000000009ba      0x171 /home/nico/Downloads/Real-Time-Systems/Ada_Drivers_Library/boards/MicroBit/obj/zfp_lib_Debug/libada_drivers_library.a(microbit-accelerometer.o)
 .debug_abbrev  0x0000000000000b2b      0x31a /home/nico/Downloads/Real-Time-Systems/Ada_Drivers_Library/boards/MicroBit/obj/zfp_lib_Debug/libada_drivers_library.a(microbit-console.o)
 .debug_abbrev  0x0000000000000e45      0x28f /home/nico/Downloads/Real-Time-Systems/Ada_Drivers_Library/boards/MicroBit/obj/zfp_lib_Debug/libada_drivers_library.a(microbit-display.o)
 .debug_abbrev  0x00000000000010d4      0x298 /home/nico/Downloads/Real-Time-Systems/Ada_Drivers_Library/boards/MicroBit/obj/zfp_lib_Debug/libada_drivers_library.a(microbit-i2c.o)
 .debug_abbrev  0x000000000000136c      0x415 /home/nico/Downloads/Real-Time-Systems/Ada_Drivers_Library/boards/MicroBit/obj/zfp_lib_Debug/libada_drivers_library.a(microbit-ios.o)
 .debug_abbrev  0x0000000000001781       0xb5 /home/nico/Downloads/Real-Time-Systems/Ada_Drivers_Library/boards/MicroBit/obj/zfp_lib_Debug/libada_drivers_library.a(microbit-servos.o)
 .debug_abbrev  0x0000000000001836      0x20f /home/nico/Downloads/Real-Time-Systems/Ada_Drivers_Library/boards/MicroBit/obj/zfp_lib_Debug/libada_drivers_library.a(microbit-time.o)
 .debug_abbrev  0x0000000000001a45      0x238 /home/nico/Downloads/Real-Time-Systems/Ada_Drivers_Library/boards/MicroBit/obj/zfp_lib_Debug/libada_drivers_library.a(mma8653.o)
 .debug_abbrev  0x0000000000001c7d      0x102 /home/nico/Downloads/Real-Time-Systems/Ada_Drivers_Library/boards/MicroBit/obj/zfp_lib_Debug/libada_drivers_library.a(nrf51-adc.o)
 .debug_abbrev  0x0000000000001d7f       0xdf /home/nico/Downloads/Real-Time-Systems/Ada_Drivers_Library/boards/MicroBit/obj/zfp_lib_Debug/libada_drivers_library.a(nrf51-clock.o)
 .debug_abbrev  0x0000000000001e5e      0x2ff /home/nico/Downloads/Real-Time-Systems/Ada_Drivers_Library/boards/MicroBit/obj/zfp_lib_Debug/libada_drivers_library.a(nrf51-device.o)
 .debug_abbrev  0x000000000000215d       0xf6 /home/nico/Downloads/Real-Time-Systems/Ada_Drivers_Library/boards/MicroBit/obj/zfp_lib_Debug/libada_drivers_library.a(nrf51-events.o)
 .debug_abbrev  0x0000000000002253      0x12a /home/nico/Downloads/Real-Time-Systems/Ada_Drivers_Library/boards/MicroBit/obj/zfp_lib_Debug/libada_drivers_library.a(nrf51-gpio-tasks_and_events.o)
 .debug_abbrev  0x000000000000237d      0x1ed /home/nico/Downloads/Real-Time-Systems/Ada_Drivers_Library/boards/MicroBit/obj/zfp_lib_Debug/libada_drivers_library.a(nrf51-gpio.o)
 .debug_abbrev  0x000000000000256a      0x17c /home/nico/Downloads/Real-Time-Systems/Ada_Drivers_Library/boards/MicroBit/obj/zfp_lib_Debug/libada_drivers_library.a(nrf51-interrupts.o)
 .debug_abbrev  0x00000000000026e6      0x147 /home/nico/Downloads/Real-Time-Systems/Ada_Drivers_Library/boards/MicroBit/obj/zfp_lib_Debug/libada_drivers_library.a(nrf51-ppi.o)
 .debug_abbrev  0x000000000000282d      0x2eb /home/nico/Downloads/Real-Time-Systems/Ada_Drivers_Library/boards/MicroBit/obj/zfp_lib_Debug/libada_drivers_library.a(nrf51-rtc.o)
 .debug_abbrev  0x0000000000002b18      0x330 /home/nico/Downloads/Real-Time-Systems/Ada_Drivers_Library/boards/MicroBit/obj/zfp_lib_Debug/libada_drivers_library.a(nrf51-spi_master.o)
 .debug_abbrev  0x0000000000002e48       0xc2 /home/nico/Downloads/Real-Time-Systems/Ada_Drivers_Library/boards/MicroBit/obj/zfp_lib_Debug/libada_drivers_library.a(nrf51-tasks.o)
 .debug_abbrev  0x0000000000002f0a      0x35b /home/nico/Downloads/Real-Time-Systems/Ada_Drivers_Library/boards/MicroBit/obj/zfp_lib_Debug/libada_drivers_library.a(nrf51-timers.o)
 .debug_abbrev  0x0000000000003265      0x354 /home/nico/Downloads/Real-Time-Systems/Ada_Drivers_Library/boards/MicroBit/obj/zfp_lib_Debug/libada_drivers_library.a(nrf51-twi.o)
 .debug_abbrev  0x00000000000035b9      0x31f /home/nico/Downloads/Real-Time-Systems/Ada_Drivers_Library/boards/MicroBit/obj/zfp_lib_Debug/libada_drivers_library.a(nrf51-uart.o)
 .debug_abbrev  0x00000000000038d8      0x1c1 /home/nico/Downloads/Real-Time-Systems/Ada_Drivers_Library/boards/MicroBit/obj/zfp_lib_Debug/libada_drivers_library.a(nrf51_svd-gpio.o)
 .debug_abbrev  0x0000000000003a99      0x190 /home/nico/Downloads/Real-Time-Systems/Ada_Drivers_Library/boards/MicroBit/obj/zfp_lib_Debug/libada_drivers_library.a(nrf51_svd-twi.o)
 .debug_abbrev  0x0000000000003c29       0x1b /home/nico/Downloads/Real-Time-Systems/Ada_Drivers_Library/boards/MicroBit/obj/zfp_lib_Debug/libada_drivers_library.a(hal-gpio.o)
 .debug_abbrev  0x0000000000003c44       0x28 /home/nico/Downloads/Real-Time-Systems/Ada_Drivers_Library/boards/MicroBit/obj/zfp_lib_Debug/libada_drivers_library.a(hal-i2c.o)
 .debug_abbrev  0x0000000000003c6c       0x28 /home/nico/Downloads/Real-Time-Systems/Ada_Drivers_Library/boards/MicroBit/obj/zfp_lib_Debug/libada_drivers_library.a(hal-spi.o)
 .debug_abbrev  0x0000000000003c94       0x1b /home/nico/Downloads/Real-Time-Systems/Ada_Drivers_Library/boards/MicroBit/obj/zfp_lib_Debug/libada_drivers_library.a(hal-time.o)
 .debug_abbrev  0x0000000000003caf       0x28 /home/nico/Downloads/Real-Time-Systems/Ada_Drivers_Library/boards/MicroBit/obj/zfp_lib_Debug/libada_drivers_library.a(hal-uart.o)
 .debug_abbrev  0x0000000000003cd7       0xd3 /home/nico/opt/GNAT/2019-arm-elf/arm-eabi/lib/gnat/zfp-cortex-m0/adalib/libgnat.a(a-except.o)
 .debug_abbrev  0x0000000000003daa      0x10d /home/nico/opt/GNAT/2019-arm-elf/arm-eabi/lib/gnat/zfp-cortex-m0/adalib/libgnat.a(s-assert.o)
 .debug_abbrev  0x0000000000003eb7       0x14 /home/nico/opt/GNAT/2019-arm-elf/bin/../lib/gcc/arm-eabi/7.4.1/thumb/v6-m/libgcc.a(_divsi3.o)
 .debug_abbrev  0x0000000000003ecb       0x14 /home/nico/opt/GNAT/2019-arm-elf/bin/../lib/gcc/arm-eabi/7.4.1/thumb/v6-m/libgcc.a(_dvmd_tls.o)
 .debug_abbrev  0x0000000000003edf       0x14 /home/nico/opt/GNAT/2019-arm-elf/bin/../lib/gcc/arm-eabi/7.4.1/thumb/v6-m/libgcc.a(_arm_cmpsf2.o)
 .debug_abbrev  0x0000000000003ef3      0x140 /home/nico/opt/GNAT/2019-arm-elf/bin/../lib/gcc/arm-eabi/7.4.1/thumb/v6-m/libgcc.a(_fixunssfsi.o)
 .debug_abbrev  0x0000000000004033      0x18e /home/nico/opt/GNAT/2019-arm-elf/bin/../lib/gcc/arm-eabi/7.4.1/thumb/v6-m/libgcc.a(addsf3.o)
 .debug_abbrev  0x00000000000041c1      0x16d /home/nico/opt/GNAT/2019-arm-elf/bin/../lib/gcc/arm-eabi/7.4.1/thumb/v6-m/libgcc.a(divsf3.o)
 .debug_abbrev  0x000000000000432e      0x155 /home/nico/opt/GNAT/2019-arm-elf/bin/../lib/gcc/arm-eabi/7.4.1/thumb/v6-m/libgcc.a(eqsf2.o)
 .debug_abbrev  0x0000000000004483      0x175 /home/nico/opt/GNAT/2019-arm-elf/bin/../lib/gcc/arm-eabi/7.4.1/thumb/v6-m/libgcc.a(gesf2.o)
 .debug_abbrev  0x00000000000045f8      0x166 /home/nico/opt/GNAT/2019-arm-elf/bin/../lib/gcc/arm-eabi/7.4.1/thumb/v6-m/libgcc.a(lesf2.o)
 .debug_abbrev  0x000000000000475e      0x174 /home/nico/opt/GNAT/2019-arm-elf/bin/../lib/gcc/arm-eabi/7.4.1/thumb/v6-m/libgcc.a(mulsf3.o)
 .debug_abbrev  0x00000000000048d2      0x18e /home/nico/opt/GNAT/2019-arm-elf/bin/../lib/gcc/arm-eabi/7.4.1/thumb/v6-m/libgcc.a(subsf3.o)
 .debug_abbrev  0x0000000000004a60      0x155 /home/nico/opt/GNAT/2019-arm-elf/bin/../lib/gcc/arm-eabi/7.4.1/thumb/v6-m/libgcc.a(unordsf2.o)
 .debug_abbrev  0x0000000000004bb5      0x159 /home/nico/opt/GNAT/2019-arm-elf/bin/../lib/gcc/arm-eabi/7.4.1/thumb/v6-m/libgcc.a(fixsfsi.o)
 .debug_abbrev  0x0000000000004d0e      0x187 /home/nico/opt/GNAT/2019-arm-elf/bin/../lib/gcc/arm-eabi/7.4.1/thumb/v6-m/libgcc.a(floatsisf.o)
 .debug_abbrev  0x0000000000004e95      0x187 /home/nico/opt/GNAT/2019-arm-elf/bin/../lib/gcc/arm-eabi/7.4.1/thumb/v6-m/libgcc.a(floatunsisf.o)
 .debug_abbrev  0x000000000000501c       0x14 /home/nico/opt/GNAT/2019-arm-elf/bin/../lib/gcc/arm-eabi/7.4.1/thumb/v6-m/libgcc.a(_clzsi2.o)

.debug_line     0x0000000000000000     0x610e
 *(.debug_line)
 .debug_line    0x0000000000000000       0xfe main.o
 .debug_line    0x00000000000000fe      0x114 b__main.o
 .debug_line    0x0000000000000212       0xef /home/nico/Downloads/Real-Time-Systems/driving/obj/chore.o
 .debug_line    0x0000000000000301      0x138 /home/nico/Downloads/Real-Time-Systems/driving/obj/accelerometer.o
 .debug_line    0x0000000000000439      0x168 /home/nico/Downloads/Real-Time-Systems/driving/obj/nav.o
 .debug_line    0x00000000000005a1      0x176 /home/nico/Downloads/Real-Time-Systems/driving/obj/qjs.o
 .debug_line    0x0000000000000717      0x14d /home/nico/Downloads/Real-Time-Systems/driving/obj/sensor.o
 .debug_line    0x0000000000000864      0x1a2 /home/nico/Downloads/Real-Time-Systems/Ada_Drivers_Library/boards/MicroBit/obj/zfp_lib_Debug/libada_drivers_library.a(cortex_m-nvic.o)
 .debug_line    0x0000000000000a06      0x230 /home/nico/Downloads/Real-Time-Systems/Ada_Drivers_Library/boards/MicroBit/obj/zfp_lib_Debug/libada_drivers_library.a(microbit-accelerometer.o)
 .debug_line    0x0000000000000c36      0x3f4 /home/nico/Downloads/Real-Time-Systems/Ada_Drivers_Library/boards/MicroBit/obj/zfp_lib_Debug/libada_drivers_library.a(microbit-console.o)
 .debug_line    0x000000000000102a      0x575 /home/nico/Downloads/Real-Time-Systems/Ada_Drivers_Library/boards/MicroBit/obj/zfp_lib_Debug/libada_drivers_library.a(microbit-display.o)
 .debug_line    0x000000000000159f      0x2e6 /home/nico/Downloads/Real-Time-Systems/Ada_Drivers_Library/boards/MicroBit/obj/zfp_lib_Debug/libada_drivers_library.a(microbit-i2c.o)
 .debug_line    0x0000000000001885      0x6f8 /home/nico/Downloads/Real-Time-Systems/Ada_Drivers_Library/boards/MicroBit/obj/zfp_lib_Debug/libada_drivers_library.a(microbit-ios.o)
 .debug_line    0x0000000000001f7d       0xf6 /home/nico/Downloads/Real-Time-Systems/Ada_Drivers_Library/boards/MicroBit/obj/zfp_lib_Debug/libada_drivers_library.a(microbit-servos.o)
 .debug_line    0x0000000000002073      0x386 /home/nico/Downloads/Real-Time-Systems/Ada_Drivers_Library/boards/MicroBit/obj/zfp_lib_Debug/libada_drivers_library.a(microbit-time.o)
 .debug_line    0x00000000000023f9      0x1ce /home/nico/Downloads/Real-Time-Systems/Ada_Drivers_Library/boards/MicroBit/obj/zfp_lib_Debug/libada_drivers_library.a(mma8653.o)
 .debug_line    0x00000000000025c7      0x1a3 /home/nico/Downloads/Real-Time-Systems/Ada_Drivers_Library/boards/MicroBit/obj/zfp_lib_Debug/libada_drivers_library.a(nrf51-adc.o)
 .debug_line    0x000000000000276a      0x1aa /home/nico/Downloads/Real-Time-Systems/Ada_Drivers_Library/boards/MicroBit/obj/zfp_lib_Debug/libada_drivers_library.a(nrf51-clock.o)
 .debug_line    0x0000000000002914      0x336 /home/nico/Downloads/Real-Time-Systems/Ada_Drivers_Library/boards/MicroBit/obj/zfp_lib_Debug/libada_drivers_library.a(nrf51-device.o)
 .debug_line    0x0000000000002c4a      0x17d /home/nico/Downloads/Real-Time-Systems/Ada_Drivers_Library/boards/MicroBit/obj/zfp_lib_Debug/libada_drivers_library.a(nrf51-events.o)
 .debug_line    0x0000000000002dc7      0x20b /home/nico/Downloads/Real-Time-Systems/Ada_Drivers_Library/boards/MicroBit/obj/zfp_lib_Debug/libada_drivers_library.a(nrf51-gpio-tasks_and_events.o)
 .debug_line    0x0000000000002fd2      0x3df /home/nico/Downloads/Real-Time-Systems/Ada_Drivers_Library/boards/MicroBit/obj/zfp_lib_Debug/libada_drivers_library.a(nrf51-gpio.o)
 .debug_line    0x00000000000033b1      0x14e /home/nico/Downloads/Real-Time-Systems/Ada_Drivers_Library/boards/MicroBit/obj/zfp_lib_Debug/libada_drivers_library.a(nrf51-interrupts.o)
 .debug_line    0x00000000000034ff      0x21f /home/nico/Downloads/Real-Time-Systems/Ada_Drivers_Library/boards/MicroBit/obj/zfp_lib_Debug/libada_drivers_library.a(nrf51-ppi.o)
 .debug_line    0x000000000000371e      0x2cd /home/nico/Downloads/Real-Time-Systems/Ada_Drivers_Library/boards/MicroBit/obj/zfp_lib_Debug/libada_drivers_library.a(nrf51-rtc.o)
 .debug_line    0x00000000000039eb      0x4d9 /home/nico/Downloads/Real-Time-Systems/Ada_Drivers_Library/boards/MicroBit/obj/zfp_lib_Debug/libada_drivers_library.a(nrf51-spi_master.o)
 .debug_line    0x0000000000003ec4       0xd1 /home/nico/Downloads/Real-Time-Systems/Ada_Drivers_Library/boards/MicroBit/obj/zfp_lib_Debug/libada_drivers_library.a(nrf51-tasks.o)
 .debug_line    0x0000000000003f95      0x421 /home/nico/Downloads/Real-Time-Systems/Ada_Drivers_Library/boards/MicroBit/obj/zfp_lib_Debug/libada_drivers_library.a(nrf51-timers.o)
 .debug_line    0x00000000000043b6      0x40c /home/nico/Downloads/Real-Time-Systems/Ada_Drivers_Library/boards/MicroBit/obj/zfp_lib_Debug/libada_drivers_library.a(nrf51-twi.o)
 .debug_line    0x00000000000047c2      0x31c /home/nico/Downloads/Real-Time-Systems/Ada_Drivers_Library/boards/MicroBit/obj/zfp_lib_Debug/libada_drivers_library.a(nrf51-uart.o)
 .debug_line    0x0000000000004ade       0xd6 /home/nico/Downloads/Real-Time-Systems/Ada_Drivers_Library/boards/MicroBit/obj/zfp_lib_Debug/libada_drivers_library.a(nrf51_svd-gpio.o)
 .debug_line    0x0000000000004bb4      0x12b /home/nico/Downloads/Real-Time-Systems/Ada_Drivers_Library/boards/MicroBit/obj/zfp_lib_Debug/libada_drivers_library.a(nrf51_svd-twi.o)
 .debug_line    0x0000000000004cdf       0x1d /home/nico/Downloads/Real-Time-Systems/Ada_Drivers_Library/boards/MicroBit/obj/zfp_lib_Debug/libada_drivers_library.a(hal-gpio.o)
 .debug_line    0x0000000000004cfc       0x1d /home/nico/Downloads/Real-Time-Systems/Ada_Drivers_Library/boards/MicroBit/obj/zfp_lib_Debug/libada_drivers_library.a(hal-i2c.o)
 .debug_line    0x0000000000004d19       0x1d /home/nico/Downloads/Real-Time-Systems/Ada_Drivers_Library/boards/MicroBit/obj/zfp_lib_Debug/libada_drivers_library.a(hal-spi.o)
 .debug_line    0x0000000000004d36       0x1d /home/nico/Downloads/Real-Time-Systems/Ada_Drivers_Library/boards/MicroBit/obj/zfp_lib_Debug/libada_drivers_library.a(hal-time.o)
 .debug_line    0x0000000000004d53       0x1d /home/nico/Downloads/Real-Time-Systems/Ada_Drivers_Library/boards/MicroBit/obj/zfp_lib_Debug/libada_drivers_library.a(hal-uart.o)
 .debug_line    0x0000000000004d70       0xa9 /home/nico/opt/GNAT/2019-arm-elf/arm-eabi/lib/gnat/zfp-cortex-m0/adalib/libgnat.a(a-except.o)
 .debug_line    0x0000000000004e19      0x137 /home/nico/opt/GNAT/2019-arm-elf/arm-eabi/lib/gnat/zfp-cortex-m0/adalib/libgnat.a(s-assert.o)
 .debug_line    0x0000000000004f50       0x74 /home/nico/opt/GNAT/2019-arm-elf/bin/../lib/gcc/arm-eabi/7.4.1/thumb/v6-m/libgcc.a(_divsi3.o)
 .debug_line    0x0000000000004fc4       0x61 /home/nico/opt/GNAT/2019-arm-elf/bin/../lib/gcc/arm-eabi/7.4.1/thumb/v6-m/libgcc.a(_dvmd_tls.o)
 .debug_line    0x0000000000005025       0x76 /home/nico/opt/GNAT/2019-arm-elf/bin/../lib/gcc/arm-eabi/7.4.1/thumb/v6-m/libgcc.a(_arm_cmpsf2.o)
 .debug_line    0x000000000000509b      0x110 /home/nico/opt/GNAT/2019-arm-elf/bin/../lib/gcc/arm-eabi/7.4.1/thumb/v6-m/libgcc.a(_fixunssfsi.o)
 .debug_line    0x00000000000051ab      0x2c8 /home/nico/opt/GNAT/2019-arm-elf/bin/../lib/gcc/arm-eabi/7.4.1/thumb/v6-m/libgcc.a(addsf3.o)
 .debug_line    0x0000000000005473      0x177 /home/nico/opt/GNAT/2019-arm-elf/bin/../lib/gcc/arm-eabi/7.4.1/thumb/v6-m/libgcc.a(divsf3.o)
 .debug_line    0x00000000000055ea       0xee /home/nico/opt/GNAT/2019-arm-elf/bin/../lib/gcc/arm-eabi/7.4.1/thumb/v6-m/libgcc.a(eqsf2.o)
 .debug_line    0x00000000000056d8      0x112 /home/nico/opt/GNAT/2019-arm-elf/bin/../lib/gcc/arm-eabi/7.4.1/thumb/v6-m/libgcc.a(gesf2.o)
 .debug_line    0x00000000000057ea      0x112 /home/nico/opt/GNAT/2019-arm-elf/bin/../lib/gcc/arm-eabi/7.4.1/thumb/v6-m/libgcc.a(lesf2.o)
 .debug_line    0x00000000000058fc      0x162 /home/nico/opt/GNAT/2019-arm-elf/bin/../lib/gcc/arm-eabi/7.4.1/thumb/v6-m/libgcc.a(mulsf3.o)
 .debug_line    0x0000000000005a5e      0x2d6 /home/nico/opt/GNAT/2019-arm-elf/bin/../lib/gcc/arm-eabi/7.4.1/thumb/v6-m/libgcc.a(subsf3.o)
 .debug_line    0x0000000000005d34       0xce /home/nico/opt/GNAT/2019-arm-elf/bin/../lib/gcc/arm-eabi/7.4.1/thumb/v6-m/libgcc.a(unordsf2.o)
 .debug_line    0x0000000000005e02       0xcb /home/nico/opt/GNAT/2019-arm-elf/bin/../lib/gcc/arm-eabi/7.4.1/thumb/v6-m/libgcc.a(fixsfsi.o)
 .debug_line    0x0000000000005ecd       0xe5 /home/nico/opt/GNAT/2019-arm-elf/bin/../lib/gcc/arm-eabi/7.4.1/thumb/v6-m/libgcc.a(floatsisf.o)
 .debug_line    0x0000000000005fb2       0xe7 /home/nico/opt/GNAT/2019-arm-elf/bin/../lib/gcc/arm-eabi/7.4.1/thumb/v6-m/libgcc.a(floatunsisf.o)
 .debug_line    0x0000000000006099       0x75 /home/nico/opt/GNAT/2019-arm-elf/bin/../lib/gcc/arm-eabi/7.4.1/thumb/v6-m/libgcc.a(_clzsi2.o)

.debug_frame    0x0000000000000000     0x2d58
 *(.debug_frame)
 .debug_frame   0x0000000000000000       0x34 main.o
 .debug_frame   0x0000000000000034       0x8c b__main.o
 .debug_frame   0x00000000000000c0       0xb0 /home/nico/Downloads/Real-Time-Systems/driving/obj/chore.o
 .debug_frame   0x0000000000000170       0xec /home/nico/Downloads/Real-Time-Systems/driving/obj/accelerometer.o
 .debug_frame   0x000000000000025c      0x188 /home/nico/Downloads/Real-Time-Systems/driving/obj/nav.o
 .debug_frame   0x00000000000003e4       0xfc /home/nico/Downloads/Real-Time-Systems/driving/obj/qjs.o
 .debug_frame   0x00000000000004e0       0xbc /home/nico/Downloads/Real-Time-Systems/driving/obj/sensor.o
 .debug_frame   0x000000000000059c       0xf0 /home/nico/Downloads/Real-Time-Systems/Ada_Drivers_Library/boards/MicroBit/obj/zfp_lib_Debug/libada_drivers_library.a(cortex_m-nvic.o)
 .debug_frame   0x000000000000068c       0xb0 /home/nico/Downloads/Real-Time-Systems/Ada_Drivers_Library/boards/MicroBit/obj/zfp_lib_Debug/libada_drivers_library.a(microbit-accelerometer.o)
 .debug_frame   0x000000000000073c       0xd4 /home/nico/Downloads/Real-Time-Systems/Ada_Drivers_Library/boards/MicroBit/obj/zfp_lib_Debug/libada_drivers_library.a(microbit-console.o)
 .debug_frame   0x0000000000000810      0x210 /home/nico/Downloads/Real-Time-Systems/Ada_Drivers_Library/boards/MicroBit/obj/zfp_lib_Debug/libada_drivers_library.a(microbit-display.o)
 .debug_frame   0x0000000000000a20       0x8c /home/nico/Downloads/Real-Time-Systems/Ada_Drivers_Library/boards/MicroBit/obj/zfp_lib_Debug/libada_drivers_library.a(microbit-i2c.o)
 .debug_frame   0x0000000000000aac      0x28c /home/nico/Downloads/Real-Time-Systems/Ada_Drivers_Library/boards/MicroBit/obj/zfp_lib_Debug/libada_drivers_library.a(microbit-ios.o)
 .debug_frame   0x0000000000000d38       0x90 /home/nico/Downloads/Real-Time-Systems/Ada_Drivers_Library/boards/MicroBit/obj/zfp_lib_Debug/libada_drivers_library.a(microbit-servos.o)
 .debug_frame   0x0000000000000dc8      0x294 /home/nico/Downloads/Real-Time-Systems/Ada_Drivers_Library/boards/MicroBit/obj/zfp_lib_Debug/libada_drivers_library.a(microbit-time.o)
 .debug_frame   0x000000000000105c      0x180 /home/nico/Downloads/Real-Time-Systems/Ada_Drivers_Library/boards/MicroBit/obj/zfp_lib_Debug/libada_drivers_library.a(mma8653.o)
 .debug_frame   0x00000000000011dc       0xcc /home/nico/Downloads/Real-Time-Systems/Ada_Drivers_Library/boards/MicroBit/obj/zfp_lib_Debug/libada_drivers_library.a(nrf51-adc.o)
 .debug_frame   0x00000000000012a8      0x150 /home/nico/Downloads/Real-Time-Systems/Ada_Drivers_Library/boards/MicroBit/obj/zfp_lib_Debug/libada_drivers_library.a(nrf51-clock.o)
 .debug_frame   0x00000000000013f8       0x2c /home/nico/Downloads/Real-Time-Systems/Ada_Drivers_Library/boards/MicroBit/obj/zfp_lib_Debug/libada_drivers_library.a(nrf51-device.o)
 .debug_frame   0x0000000000001424       0xd0 /home/nico/Downloads/Real-Time-Systems/Ada_Drivers_Library/boards/MicroBit/obj/zfp_lib_Debug/libada_drivers_library.a(nrf51-events.o)
 .debug_frame   0x00000000000014f4       0xb0 /home/nico/Downloads/Real-Time-Systems/Ada_Drivers_Library/boards/MicroBit/obj/zfp_lib_Debug/libada_drivers_library.a(nrf51-gpio-tasks_and_events.o)
 .debug_frame   0x00000000000015a4      0x1fc /home/nico/Downloads/Real-Time-Systems/Ada_Drivers_Library/boards/MicroBit/obj/zfp_lib_Debug/libada_drivers_library.a(nrf51-gpio.o)
 .debug_frame   0x00000000000017a0       0xec /home/nico/Downloads/Real-Time-Systems/Ada_Drivers_Library/boards/MicroBit/obj/zfp_lib_Debug/libada_drivers_library.a(nrf51-interrupts.o)
 .debug_frame   0x000000000000188c       0xf4 /home/nico/Downloads/Real-Time-Systems/Ada_Drivers_Library/boards/MicroBit/obj/zfp_lib_Debug/libada_drivers_library.a(nrf51-ppi.o)
 .debug_frame   0x0000000000001980      0x150 /home/nico/Downloads/Real-Time-Systems/Ada_Drivers_Library/boards/MicroBit/obj/zfp_lib_Debug/libada_drivers_library.a(nrf51-rtc.o)
 .debug_frame   0x0000000000001ad0      0x234 /home/nico/Downloads/Real-Time-Systems/Ada_Drivers_Library/boards/MicroBit/obj/zfp_lib_Debug/libada_drivers_library.a(nrf51-spi_master.o)
 .debug_frame   0x0000000000001d04       0x70 /home/nico/Downloads/Real-Time-Systems/Ada_Drivers_Library/boards/MicroBit/obj/zfp_lib_Debug/libada_drivers_library.a(nrf51-tasks.o)
 .debug_frame   0x0000000000001d74      0x318 /home/nico/Downloads/Real-Time-Systems/Ada_Drivers_Library/boards/MicroBit/obj/zfp_lib_Debug/libada_drivers_library.a(nrf51-timers.o)
 .debug_frame   0x000000000000208c      0x1e4 /home/nico/Downloads/Real-Time-Systems/Ada_Drivers_Library/boards/MicroBit/obj/zfp_lib_Debug/libada_drivers_library.a(nrf51-twi.o)
 .debug_frame   0x0000000000002270      0x204 /home/nico/Downloads/Real-Time-Systems/Ada_Drivers_Library/boards/MicroBit/obj/zfp_lib_Debug/libada_drivers_library.a(nrf51-uart.o)
 .debug_frame   0x0000000000002474      0x454 /home/nico/Downloads/Real-Time-Systems/Ada_Drivers_Library/boards/MicroBit/obj/zfp_lib_Debug/libada_drivers_library.a(nrf51_svd-gpio.o)
 .debug_frame   0x00000000000028c8      0x170 /home/nico/Downloads/Real-Time-Systems/Ada_Drivers_Library/boards/MicroBit/obj/zfp_lib_Debug/libada_drivers_library.a(nrf51_svd-twi.o)
 .debug_frame   0x0000000000002a38       0x50 /home/nico/Downloads/Real-Time-Systems/Ada_Drivers_Library/boards/MicroBit/obj/zfp_lib_Debug/libada_drivers_library.a(hal-spi.o)
 .debug_frame   0x0000000000002a88       0x50 /home/nico/Downloads/Real-Time-Systems/Ada_Drivers_Library/boards/MicroBit/obj/zfp_lib_Debug/libada_drivers_library.a(hal-uart.o)
 .debug_frame   0x0000000000002ad8       0x34 /home/nico/opt/GNAT/2019-arm-elf/arm-eabi/lib/gnat/zfp-cortex-m0/adalib/libgnat.a(s-assert.o)
 .debug_frame   0x0000000000002b0c       0x20 /home/nico/opt/GNAT/2019-arm-elf/bin/../lib/gcc/arm-eabi/7.4.1/thumb/v6-m/libgcc.a(_divsi3.o)
 .debug_frame   0x0000000000002b2c       0x28 /home/nico/opt/GNAT/2019-arm-elf/bin/../lib/gcc/arm-eabi/7.4.1/thumb/v6-m/libgcc.a(_fixunssfsi.o)
 .debug_frame   0x0000000000002b54       0x38 /home/nico/opt/GNAT/2019-arm-elf/bin/../lib/gcc/arm-eabi/7.4.1/thumb/v6-m/libgcc.a(addsf3.o)
 .debug_frame   0x0000000000002b8c       0x3c /home/nico/opt/GNAT/2019-arm-elf/bin/../lib/gcc/arm-eabi/7.4.1/thumb/v6-m/libgcc.a(divsf3.o)
 .debug_frame   0x0000000000002bc8       0x2c /home/nico/opt/GNAT/2019-arm-elf/bin/../lib/gcc/arm-eabi/7.4.1/thumb/v6-m/libgcc.a(eqsf2.o)
 .debug_frame   0x0000000000002bf4       0x2c /home/nico/opt/GNAT/2019-arm-elf/bin/../lib/gcc/arm-eabi/7.4.1/thumb/v6-m/libgcc.a(gesf2.o)
 .debug_frame   0x0000000000002c20       0x2c /home/nico/opt/GNAT/2019-arm-elf/bin/../lib/gcc/arm-eabi/7.4.1/thumb/v6-m/libgcc.a(lesf2.o)
 .debug_frame   0x0000000000002c4c       0x3c /home/nico/opt/GNAT/2019-arm-elf/bin/../lib/gcc/arm-eabi/7.4.1/thumb/v6-m/libgcc.a(mulsf3.o)
 .debug_frame   0x0000000000002c88       0x38 /home/nico/opt/GNAT/2019-arm-elf/bin/../lib/gcc/arm-eabi/7.4.1/thumb/v6-m/libgcc.a(subsf3.o)
 .debug_frame   0x0000000000002cc0       0x20 /home/nico/opt/GNAT/2019-arm-elf/bin/../lib/gcc/arm-eabi/7.4.1/thumb/v6-m/libgcc.a(unordsf2.o)
 .debug_frame   0x0000000000002ce0       0x20 /home/nico/opt/GNAT/2019-arm-elf/bin/../lib/gcc/arm-eabi/7.4.1/thumb/v6-m/libgcc.a(fixsfsi.o)
 .debug_frame   0x0000000000002d00       0x2c /home/nico/opt/GNAT/2019-arm-elf/bin/../lib/gcc/arm-eabi/7.4.1/thumb/v6-m/libgcc.a(floatsisf.o)
 .debug_frame   0x0000000000002d2c       0x2c /home/nico/opt/GNAT/2019-arm-elf/bin/../lib/gcc/arm-eabi/7.4.1/thumb/v6-m/libgcc.a(floatunsisf.o)

.debug_str      0x0000000000000000     0xd901
 *(.debug_str)
 .debug_str     0x0000000000000000      0x3c2 main.o
                                        0x3e7 (size before relaxing)
 .debug_str     0x00000000000003c2      0x9b1 b__main.o
                                        0xa52 (size before relaxing)
 .debug_str     0x0000000000000d73       0x83 /home/nico/Downloads/Real-Time-Systems/driving/obj/chore.o
                                        0x3e1 (size before relaxing)
 .debug_str     0x0000000000000df6      0x177 /home/nico/Downloads/Real-Time-Systems/driving/obj/accelerometer.o
                                        0x3b7 (size before relaxing)
 .debug_str     0x0000000000000f6d      0x237 /home/nico/Downloads/Real-Time-Systems/driving/obj/nav.o
                                        0x44d (size before relaxing)
 .debug_str     0x00000000000011a4       0x85 /home/nico/Downloads/Real-Time-Systems/driving/obj/qjs.o
                                        0x41b (size before relaxing)
 .debug_str     0x0000000000001229      0x152 /home/nico/Downloads/Real-Time-Systems/driving/obj/sensor.o
                                        0x39b (size before relaxing)
 .debug_str     0x000000000000137b      0x482 /home/nico/Downloads/Real-Time-Systems/Ada_Drivers_Library/boards/MicroBit/obj/zfp_lib_Debug/libada_drivers_library.a(cortex_m-nvic.o)
                                        0x4d9 (size before relaxing)
 .debug_str     0x00000000000017fd      0x22e /home/nico/Downloads/Real-Time-Systems/Ada_Drivers_Library/boards/MicroBit/obj/zfp_lib_Debug/libada_drivers_library.a(microbit-accelerometer.o)
                                        0x500 (size before relaxing)
 .debug_str     0x0000000000001a2b     0x11de /home/nico/Downloads/Real-Time-Systems/Ada_Drivers_Library/boards/MicroBit/obj/zfp_lib_Debug/libada_drivers_library.a(microbit-console.o)
                                       0x1562 (size before relaxing)
 .debug_str     0x0000000000002c09      0xa33 /home/nico/Downloads/Real-Time-Systems/Ada_Drivers_Library/boards/MicroBit/obj/zfp_lib_Debug/libada_drivers_library.a(microbit-display.o)
                                        0xdb9 (size before relaxing)
 .debug_str     0x000000000000363c      0xc27 /home/nico/Downloads/Real-Time-Systems/Ada_Drivers_Library/boards/MicroBit/obj/zfp_lib_Debug/libada_drivers_library.a(microbit-i2c.o)
                                       0x10e4 (size before relaxing)
 .debug_str     0x0000000000004263     0x1519 /home/nico/Downloads/Real-Time-Systems/Ada_Drivers_Library/boards/MicroBit/obj/zfp_lib_Debug/libada_drivers_library.a(microbit-ios.o)
                                       0x1e06 (size before relaxing)
 .debug_str     0x000000000000577c      0x131 /home/nico/Downloads/Real-Time-Systems/Ada_Drivers_Library/boards/MicroBit/obj/zfp_lib_Debug/libada_drivers_library.a(microbit-servos.o)
                                        0x398 (size before relaxing)
 .debug_str     0x00000000000058ad      0x3f3 /home/nico/Downloads/Real-Time-Systems/Ada_Drivers_Library/boards/MicroBit/obj/zfp_lib_Debug/libada_drivers_library.a(microbit-time.o)
                                        0x829 (size before relaxing)
 .debug_str     0x0000000000005ca0      0x4c3 /home/nico/Downloads/Real-Time-Systems/Ada_Drivers_Library/boards/MicroBit/obj/zfp_lib_Debug/libada_drivers_library.a(mma8653.o)
                                        0xaab (size before relaxing)
 .debug_str     0x0000000000006163      0x2c1 /home/nico/Downloads/Real-Time-Systems/Ada_Drivers_Library/boards/MicroBit/obj/zfp_lib_Debug/libada_drivers_library.a(nrf51-adc.o)
                                        0x579 (size before relaxing)
 .debug_str     0x0000000000006424      0x2ef /home/nico/Downloads/Real-Time-Systems/Ada_Drivers_Library/boards/MicroBit/obj/zfp_lib_Debug/libada_drivers_library.a(nrf51-clock.o)
                                        0x598 (size before relaxing)
 .debug_str     0x0000000000006713     0x150f /home/nico/Downloads/Real-Time-Systems/Ada_Drivers_Library/boards/MicroBit/obj/zfp_lib_Debug/libada_drivers_library.a(nrf51-device.o)
                                       0x3c17 (size before relaxing)
 .debug_str     0x0000000000007c22      0xa64 /home/nico/Downloads/Real-Time-Systems/Ada_Drivers_Library/boards/MicroBit/obj/zfp_lib_Debug/libada_drivers_library.a(nrf51-events.o)
                                        0xe7f (size before relaxing)
 .debug_str     0x0000000000008686      0x52e /home/nico/Downloads/Real-Time-Systems/Ada_Drivers_Library/boards/MicroBit/obj/zfp_lib_Debug/libada_drivers_library.a(nrf51-gpio-tasks_and_events.o)
                                        0x87e (size before relaxing)
 .debug_str     0x0000000000008bb4      0x500 /home/nico/Downloads/Real-Time-Systems/Ada_Drivers_Library/boards/MicroBit/obj/zfp_lib_Debug/libada_drivers_library.a(nrf51-gpio.o)
                                        0xb8e (size before relaxing)
 .debug_str     0x00000000000090b4      0x202 /home/nico/Downloads/Real-Time-Systems/Ada_Drivers_Library/boards/MicroBit/obj/zfp_lib_Debug/libada_drivers_library.a(nrf51-interrupts.o)
                                        0x8dc (size before relaxing)
 .debug_str     0x00000000000092b6      0x2e0 /home/nico/Downloads/Real-Time-Systems/Ada_Drivers_Library/boards/MicroBit/obj/zfp_lib_Debug/libada_drivers_library.a(nrf51-ppi.o)
                                        0x5ae (size before relaxing)
 .debug_str     0x0000000000009596      0x202 /home/nico/Downloads/Real-Time-Systems/Ada_Drivers_Library/boards/MicroBit/obj/zfp_lib_Debug/libada_drivers_library.a(nrf51-rtc.o)
                                       0x113f (size before relaxing)
 .debug_str     0x0000000000009798      0x595 /home/nico/Downloads/Real-Time-Systems/Ada_Drivers_Library/boards/MicroBit/obj/zfp_lib_Debug/libada_drivers_library.a(nrf51-spi_master.o)
                                        0xfeb (size before relaxing)
 .debug_str     0x0000000000009d2d      0xab9 /home/nico/Downloads/Real-Time-Systems/Ada_Drivers_Library/boards/MicroBit/obj/zfp_lib_Debug/libada_drivers_library.a(nrf51-tasks.o)
                                        0xf65 (size before relaxing)
 .debug_str     0x000000000000a7e6      0x35d /home/nico/Downloads/Real-Time-Systems/Ada_Drivers_Library/boards/MicroBit/obj/zfp_lib_Debug/libada_drivers_library.a(nrf51-timers.o)
                                       0x11e2 (size before relaxing)
 .debug_str     0x000000000000ab43      0x273 /home/nico/Downloads/Real-Time-Systems/Ada_Drivers_Library/boards/MicroBit/obj/zfp_lib_Debug/libada_drivers_library.a(nrf51-twi.o)
                                       0x14af (size before relaxing)
 .debug_str     0x000000000000adb6      0x391 /home/nico/Downloads/Real-Time-Systems/Ada_Drivers_Library/boards/MicroBit/obj/zfp_lib_Debug/libada_drivers_library.a(nrf51-uart.o)
                                       0x16ef (size before relaxing)
 .debug_str     0x000000000000b147      0x69b /home/nico/Downloads/Real-Time-Systems/Ada_Drivers_Library/boards/MicroBit/obj/zfp_lib_Debug/libada_drivers_library.a(nrf51_svd-gpio.o)
                                        0xbe9 (size before relaxing)
 .debug_str     0x000000000000b7e2       0x9f /home/nico/Downloads/Real-Time-Systems/Ada_Drivers_Library/boards/MicroBit/obj/zfp_lib_Debug/libada_drivers_library.a(nrf51_svd-twi.o)
                                        0xed3 (size before relaxing)
 .debug_str     0x000000000000b881       0x50 /home/nico/Downloads/Real-Time-Systems/Ada_Drivers_Library/boards/MicroBit/obj/zfp_lib_Debug/libada_drivers_library.a(hal-gpio.o)
                                        0x254 (size before relaxing)
 .debug_str     0x000000000000b8d1       0x4f /home/nico/Downloads/Real-Time-Systems/Ada_Drivers_Library/boards/MicroBit/obj/zfp_lib_Debug/libada_drivers_library.a(hal-i2c.o)
                                        0x2af (size before relaxing)
 .debug_str     0x000000000000b920       0x4f /home/nico/Downloads/Real-Time-Systems/Ada_Drivers_Library/boards/MicroBit/obj/zfp_lib_Debug/libada_drivers_library.a(hal-spi.o)
                                        0x29d (size before relaxing)
 .debug_str     0x000000000000b96f       0x50 /home/nico/Downloads/Real-Time-Systems/Ada_Drivers_Library/boards/MicroBit/obj/zfp_lib_Debug/libada_drivers_library.a(hal-time.o)
                                        0x254 (size before relaxing)
 .debug_str     0x000000000000b9bf       0x50 /home/nico/Downloads/Real-Time-Systems/Ada_Drivers_Library/boards/MicroBit/obj/zfp_lib_Debug/libada_drivers_library.a(hal-uart.o)
                                        0x289 (size before relaxing)
 .debug_str     0x000000000000ba0f      0x3c4 /home/nico/opt/GNAT/2019-arm-elf/arm-eabi/lib/gnat/zfp-cortex-m0/adalib/libgnat.a(a-except.o)
                                        0x42b (size before relaxing)
 .debug_str     0x000000000000bdd3      0x397 /home/nico/opt/GNAT/2019-arm-elf/arm-eabi/lib/gnat/zfp-cortex-m0/adalib/libgnat.a(s-assert.o)
                                        0x4a1 (size before relaxing)
 .debug_str     0x000000000000c16a       0x84 /home/nico/opt/GNAT/2019-arm-elf/bin/../lib/gcc/arm-eabi/7.4.1/thumb/v6-m/libgcc.a(_divsi3.o)
 .debug_str     0x000000000000c1ee       0x84 /home/nico/opt/GNAT/2019-arm-elf/bin/../lib/gcc/arm-eabi/7.4.1/thumb/v6-m/libgcc.a(_dvmd_tls.o)
 .debug_str     0x000000000000c1ee       0x31 /home/nico/opt/GNAT/2019-arm-elf/bin/../lib/gcc/arm-eabi/7.4.1/thumb/v6-m/libgcc.a(_arm_cmpsf2.o)
                                         0x84 (size before relaxing)
 .debug_str     0x000000000000c21f     0x131c /home/nico/opt/GNAT/2019-arm-elf/bin/../lib/gcc/arm-eabi/7.4.1/thumb/v6-m/libgcc.a(_fixunssfsi.o)
                                       0x1397 (size before relaxing)
 .debug_str     0x000000000000d53b      0x131 /home/nico/opt/GNAT/2019-arm-elf/bin/../lib/gcc/arm-eabi/7.4.1/thumb/v6-m/libgcc.a(addsf3.o)
                                        0x2c1 (size before relaxing)
 .debug_str     0x000000000000d66c      0x10a /home/nico/opt/GNAT/2019-arm-elf/bin/../lib/gcc/arm-eabi/7.4.1/thumb/v6-m/libgcc.a(divsf3.o)
                                        0x2e6 (size before relaxing)
 .debug_str     0x000000000000d776       0x2f /home/nico/opt/GNAT/2019-arm-elf/bin/../lib/gcc/arm-eabi/7.4.1/thumb/v6-m/libgcc.a(eqsf2.o)
                                        0x1ef (size before relaxing)
 .debug_str     0x000000000000d7a5       0x34 /home/nico/opt/GNAT/2019-arm-elf/bin/../lib/gcc/arm-eabi/7.4.1/thumb/v6-m/libgcc.a(gesf2.o)
                                        0x213 (size before relaxing)
 .debug_str     0x000000000000d7d9       0x10 /home/nico/opt/GNAT/2019-arm-elf/bin/../lib/gcc/arm-eabi/7.4.1/thumb/v6-m/libgcc.a(lesf2.o)
                                        0x213 (size before relaxing)
 .debug_str     0x000000000000d7e9       0x78 /home/nico/opt/GNAT/2019-arm-elf/bin/../lib/gcc/arm-eabi/7.4.1/thumb/v6-m/libgcc.a(mulsf3.o)
                                        0x2e6 (size before relaxing)
 .debug_str     0x000000000000d861        0x9 /home/nico/opt/GNAT/2019-arm-elf/bin/../lib/gcc/arm-eabi/7.4.1/thumb/v6-m/libgcc.a(subsf3.o)
                                        0x2c1 (size before relaxing)
 .debug_str     0x000000000000d86a       0x1a /home/nico/opt/GNAT/2019-arm-elf/bin/../lib/gcc/arm-eabi/7.4.1/thumb/v6-m/libgcc.a(unordsf2.o)
                                        0x1f9 (size before relaxing)
 .debug_str     0x000000000000d884       0x1d /home/nico/opt/GNAT/2019-arm-elf/bin/../lib/gcc/arm-eabi/7.4.1/thumb/v6-m/libgcc.a(fixsfsi.o)
                                        0x1f9 (size before relaxing)
 .debug_str     0x000000000000d8a1       0x45 /home/nico/opt/GNAT/2019-arm-elf/bin/../lib/gcc/arm-eabi/7.4.1/thumb/v6-m/libgcc.a(floatsisf.o)
                                        0x288 (size before relaxing)
 .debug_str     0x000000000000d8e6       0x1b /home/nico/opt/GNAT/2019-arm-elf/bin/../lib/gcc/arm-eabi/7.4.1/thumb/v6-m/libgcc.a(floatunsisf.o)
                                        0x284 (size before relaxing)
 .debug_str     0x000000000000d901       0x84 /home/nico/opt/GNAT/2019-arm-elf/bin/../lib/gcc/arm-eabi/7.4.1/thumb/v6-m/libgcc.a(_clzsi2.o)

.debug_loc      0x0000000000000000     0x3446
 *(.debug_loc)
 .debug_loc     0x0000000000000000       0x48 /home/nico/opt/GNAT/2019-arm-elf/arm-eabi/lib/gnat/zfp-cortex-m0/adalib/libgnat.a(s-assert.o)
 .debug_loc     0x0000000000000048       0x39 /home/nico/opt/GNAT/2019-arm-elf/bin/../lib/gcc/arm-eabi/7.4.1/thumb/v6-m/libgcc.a(_fixunssfsi.o)
 .debug_loc     0x0000000000000081      0xd65 /home/nico/opt/GNAT/2019-arm-elf/bin/../lib/gcc/arm-eabi/7.4.1/thumb/v6-m/libgcc.a(addsf3.o)
 .debug_loc     0x0000000000000de6      0x7a2 /home/nico/opt/GNAT/2019-arm-elf/bin/../lib/gcc/arm-eabi/7.4.1/thumb/v6-m/libgcc.a(divsf3.o)
 .debug_loc     0x0000000000001588       0xc7 /home/nico/opt/GNAT/2019-arm-elf/bin/../lib/gcc/arm-eabi/7.4.1/thumb/v6-m/libgcc.a(eqsf2.o)
 .debug_loc     0x000000000000164f      0x172 /home/nico/opt/GNAT/2019-arm-elf/bin/../lib/gcc/arm-eabi/7.4.1/thumb/v6-m/libgcc.a(gesf2.o)
 .debug_loc     0x00000000000017c1      0x192 /home/nico/opt/GNAT/2019-arm-elf/bin/../lib/gcc/arm-eabi/7.4.1/thumb/v6-m/libgcc.a(lesf2.o)
 .debug_loc     0x0000000000001953      0x85f /home/nico/opt/GNAT/2019-arm-elf/bin/../lib/gcc/arm-eabi/7.4.1/thumb/v6-m/libgcc.a(mulsf3.o)
 .debug_loc     0x00000000000021b2      0xcff /home/nico/opt/GNAT/2019-arm-elf/bin/../lib/gcc/arm-eabi/7.4.1/thumb/v6-m/libgcc.a(subsf3.o)
 .debug_loc     0x0000000000002eb1       0x64 /home/nico/opt/GNAT/2019-arm-elf/bin/../lib/gcc/arm-eabi/7.4.1/thumb/v6-m/libgcc.a(unordsf2.o)
 .debug_loc     0x0000000000002f15       0xb3 /home/nico/opt/GNAT/2019-arm-elf/bin/../lib/gcc/arm-eabi/7.4.1/thumb/v6-m/libgcc.a(fixsfsi.o)
 .debug_loc     0x0000000000002fc8      0x245 /home/nico/opt/GNAT/2019-arm-elf/bin/../lib/gcc/arm-eabi/7.4.1/thumb/v6-m/libgcc.a(floatsisf.o)
 .debug_loc     0x000000000000320d      0x239 /home/nico/opt/GNAT/2019-arm-elf/bin/../lib/gcc/arm-eabi/7.4.1/thumb/v6-m/libgcc.a(floatunsisf.o)

.debug_macinfo
 *(.debug_macinfo)

.debug_pubtypes
 *(.debug_pubtypes)

.debug_ranges   0x0000000000000000      0xd38
 *(.debug_ranges)
 .debug_ranges  0x0000000000000000       0x10 main.o
 .debug_ranges  0x0000000000000010       0x20 b__main.o
 .debug_ranges  0x0000000000000030       0x10 /home/nico/Downloads/Real-Time-Systems/driving/obj/chore.o
 .debug_ranges  0x0000000000000040       0x40 /home/nico/Downloads/Real-Time-Systems/driving/obj/accelerometer.o
 .debug_ranges  0x0000000000000080       0x68 /home/nico/Downloads/Real-Time-Systems/driving/obj/nav.o
 .debug_ranges  0x00000000000000e8       0x10 /home/nico/Downloads/Real-Time-Systems/driving/obj/qjs.o
 .debug_ranges  0x00000000000000f8       0x30 /home/nico/Downloads/Real-Time-Systems/driving/obj/sensor.o
 .debug_ranges  0x0000000000000128       0x40 /home/nico/Downloads/Real-Time-Systems/Ada_Drivers_Library/boards/MicroBit/obj/zfp_lib_Debug/libada_drivers_library.a(cortex_m-nvic.o)
 .debug_ranges  0x0000000000000168       0x30 /home/nico/Downloads/Real-Time-Systems/Ada_Drivers_Library/boards/MicroBit/obj/zfp_lib_Debug/libada_drivers_library.a(microbit-accelerometer.o)
 .debug_ranges  0x0000000000000198       0x38 /home/nico/Downloads/Real-Time-Systems/Ada_Drivers_Library/boards/MicroBit/obj/zfp_lib_Debug/libada_drivers_library.a(microbit-console.o)
 .debug_ranges  0x00000000000001d0       0x78 /home/nico/Downloads/Real-Time-Systems/Ada_Drivers_Library/boards/MicroBit/obj/zfp_lib_Debug/libada_drivers_library.a(microbit-display.o)
 .debug_ranges  0x0000000000000248       0x28 /home/nico/Downloads/Real-Time-Systems/Ada_Drivers_Library/boards/MicroBit/obj/zfp_lib_Debug/libada_drivers_library.a(microbit-i2c.o)
 .debug_ranges  0x0000000000000270       0x90 /home/nico/Downloads/Real-Time-Systems/Ada_Drivers_Library/boards/MicroBit/obj/zfp_lib_Debug/libada_drivers_library.a(microbit-ios.o)
 .debug_ranges  0x0000000000000300       0x20 /home/nico/Downloads/Real-Time-Systems/Ada_Drivers_Library/boards/MicroBit/obj/zfp_lib_Debug/libada_drivers_library.a(microbit-servos.o)
 .debug_ranges  0x0000000000000320       0x88 /home/nico/Downloads/Real-Time-Systems/Ada_Drivers_Library/boards/MicroBit/obj/zfp_lib_Debug/libada_drivers_library.a(microbit-time.o)
 .debug_ranges  0x00000000000003a8       0x38 /home/nico/Downloads/Real-Time-Systems/Ada_Drivers_Library/boards/MicroBit/obj/zfp_lib_Debug/libada_drivers_library.a(mma8653.o)
 .debug_ranges  0x00000000000003e0       0x38 /home/nico/Downloads/Real-Time-Systems/Ada_Drivers_Library/boards/MicroBit/obj/zfp_lib_Debug/libada_drivers_library.a(nrf51-adc.o)
 .debug_ranges  0x0000000000000418       0x60 /home/nico/Downloads/Real-Time-Systems/Ada_Drivers_Library/boards/MicroBit/obj/zfp_lib_Debug/libada_drivers_library.a(nrf51-clock.o)
 .debug_ranges  0x0000000000000478       0x10 /home/nico/Downloads/Real-Time-Systems/Ada_Drivers_Library/boards/MicroBit/obj/zfp_lib_Debug/libada_drivers_library.a(nrf51-device.o)
 .debug_ranges  0x0000000000000488       0x38 /home/nico/Downloads/Real-Time-Systems/Ada_Drivers_Library/boards/MicroBit/obj/zfp_lib_Debug/libada_drivers_library.a(nrf51-events.o)
 .debug_ranges  0x00000000000004c0       0x30 /home/nico/Downloads/Real-Time-Systems/Ada_Drivers_Library/boards/MicroBit/obj/zfp_lib_Debug/libada_drivers_library.a(nrf51-gpio-tasks_and_events.o)
 .debug_ranges  0x00000000000004f0       0x58 /home/nico/Downloads/Real-Time-Systems/Ada_Drivers_Library/boards/MicroBit/obj/zfp_lib_Debug/libada_drivers_library.a(nrf51-gpio.o)
 .debug_ranges  0x0000000000000548       0x40 /home/nico/Downloads/Real-Time-Systems/Ada_Drivers_Library/boards/MicroBit/obj/zfp_lib_Debug/libada_drivers_library.a(nrf51-interrupts.o)
 .debug_ranges  0x0000000000000588       0x40 /home/nico/Downloads/Real-Time-Systems/Ada_Drivers_Library/boards/MicroBit/obj/zfp_lib_Debug/libada_drivers_library.a(nrf51-ppi.o)
 .debug_ranges  0x00000000000005c8       0x50 /home/nico/Downloads/Real-Time-Systems/Ada_Drivers_Library/boards/MicroBit/obj/zfp_lib_Debug/libada_drivers_library.a(nrf51-rtc.o)
 .debug_ranges  0x0000000000000618       0x68 /home/nico/Downloads/Real-Time-Systems/Ada_Drivers_Library/boards/MicroBit/obj/zfp_lib_Debug/libada_drivers_library.a(nrf51-spi_master.o)
 .debug_ranges  0x0000000000000680       0x20 /home/nico/Downloads/Real-Time-Systems/Ada_Drivers_Library/boards/MicroBit/obj/zfp_lib_Debug/libada_drivers_library.a(nrf51-tasks.o)
 .debug_ranges  0x00000000000006a0       0xa8 /home/nico/Downloads/Real-Time-Systems/Ada_Drivers_Library/boards/MicroBit/obj/zfp_lib_Debug/libada_drivers_library.a(nrf51-timers.o)
 .debug_ranges  0x0000000000000748       0x58 /home/nico/Downloads/Real-Time-Systems/Ada_Drivers_Library/boards/MicroBit/obj/zfp_lib_Debug/libada_drivers_library.a(nrf51-twi.o)
 .debug_ranges  0x00000000000007a0       0x58 /home/nico/Downloads/Real-Time-Systems/Ada_Drivers_Library/boards/MicroBit/obj/zfp_lib_Debug/libada_drivers_library.a(nrf51-uart.o)
 .debug_ranges  0x00000000000007f8       0x10 /home/nico/opt/GNAT/2019-arm-elf/arm-eabi/lib/gnat/zfp-cortex-m0/adalib/libgnat.a(s-assert.o)
 .debug_ranges  0x0000000000000808      0x178 /home/nico/opt/GNAT/2019-arm-elf/bin/../lib/gcc/arm-eabi/7.4.1/thumb/v6-m/libgcc.a(addsf3.o)
 .debug_ranges  0x0000000000000980       0x80 /home/nico/opt/GNAT/2019-arm-elf/bin/../lib/gcc/arm-eabi/7.4.1/thumb/v6-m/libgcc.a(divsf3.o)
 .debug_ranges  0x0000000000000a00       0x30 /home/nico/opt/GNAT/2019-arm-elf/bin/../lib/gcc/arm-eabi/7.4.1/thumb/v6-m/libgcc.a(eqsf2.o)
 .debug_ranges  0x0000000000000a30       0x60 /home/nico/opt/GNAT/2019-arm-elf/bin/../lib/gcc/arm-eabi/7.4.1/thumb/v6-m/libgcc.a(gesf2.o)
 .debug_ranges  0x0000000000000a90       0x70 /home/nico/opt/GNAT/2019-arm-elf/bin/../lib/gcc/arm-eabi/7.4.1/thumb/v6-m/libgcc.a(lesf2.o)
 .debug_ranges  0x0000000000000b00       0x48 /home/nico/opt/GNAT/2019-arm-elf/bin/../lib/gcc/arm-eabi/7.4.1/thumb/v6-m/libgcc.a(mulsf3.o)
 .debug_ranges  0x0000000000000b48      0x178 /home/nico/opt/GNAT/2019-arm-elf/bin/../lib/gcc/arm-eabi/7.4.1/thumb/v6-m/libgcc.a(subsf3.o)
 .debug_ranges  0x0000000000000cc0       0x30 /home/nico/opt/GNAT/2019-arm-elf/bin/../lib/gcc/arm-eabi/7.4.1/thumb/v6-m/libgcc.a(unordsf2.o)
 .debug_ranges  0x0000000000000cf0       0x18 /home/nico/opt/GNAT/2019-arm-elf/bin/../lib/gcc/arm-eabi/7.4.1/thumb/v6-m/libgcc.a(fixsfsi.o)
 .debug_ranges  0x0000000000000d08       0x18 /home/nico/opt/GNAT/2019-arm-elf/bin/../lib/gcc/arm-eabi/7.4.1/thumb/v6-m/libgcc.a(floatsisf.o)
 .debug_ranges  0x0000000000000d20       0x18 /home/nico/opt/GNAT/2019-arm-elf/bin/../lib/gcc/arm-eabi/7.4.1/thumb/v6-m/libgcc.a(floatunsisf.o)

.comment        0x0000000000000000       0x3d
 .comment       0x0000000000000000       0x3d main.o
                                         0x3e (size before relaxing)
 .comment       0x000000000000003d       0x3e b__main.o
 .comment       0x000000000000003d       0x3e /home/nico/Downloads/Real-Time-Systems/driving/obj/chore.o
 .comment       0x000000000000003d       0x3e /home/nico/Downloads/Real-Time-Systems/driving/obj/accelerometer.o
 .comment       0x000000000000003d       0x3e /home/nico/Downloads/Real-Time-Systems/driving/obj/nav.o
 .comment       0x000000000000003d       0x3e /home/nico/Downloads/Real-Time-Systems/driving/obj/qjs.o
 .comment       0x000000000000003d       0x3e /home/nico/Downloads/Real-Time-Systems/driving/obj/sensor.o
 .comment       0x000000000000003d       0x3e /home/nico/Downloads/Real-Time-Systems/Ada_Drivers_Library/boards/MicroBit/obj/zfp_lib_Debug/libada_drivers_library.a(cortex_m-nvic.o)
 .comment       0x000000000000003d       0x3e /home/nico/Downloads/Real-Time-Systems/Ada_Drivers_Library/boards/MicroBit/obj/zfp_lib_Debug/libada_drivers_library.a(microbit-accelerometer.o)
 .comment       0x000000000000003d       0x3e /home/nico/Downloads/Real-Time-Systems/Ada_Drivers_Library/boards/MicroBit/obj/zfp_lib_Debug/libada_drivers_library.a(microbit-console.o)
 .comment       0x000000000000003d       0x3e /home/nico/Downloads/Real-Time-Systems/Ada_Drivers_Library/boards/MicroBit/obj/zfp_lib_Debug/libada_drivers_library.a(microbit-display.o)
 .comment       0x000000000000003d       0x3e /home/nico/Downloads/Real-Time-Systems/Ada_Drivers_Library/boards/MicroBit/obj/zfp_lib_Debug/libada_drivers_library.a(microbit-i2c.o)
 .comment       0x000000000000003d       0x3e /home/nico/Downloads/Real-Time-Systems/Ada_Drivers_Library/boards/MicroBit/obj/zfp_lib_Debug/libada_drivers_library.a(microbit-ios.o)
 .comment       0x000000000000003d       0x3e /home/nico/Downloads/Real-Time-Systems/Ada_Drivers_Library/boards/MicroBit/obj/zfp_lib_Debug/libada_drivers_library.a(microbit-servos.o)
 .comment       0x000000000000003d       0x3e /home/nico/Downloads/Real-Time-Systems/Ada_Drivers_Library/boards/MicroBit/obj/zfp_lib_Debug/libada_drivers_library.a(microbit-time.o)
 .comment       0x000000000000003d       0x3e /home/nico/Downloads/Real-Time-Systems/Ada_Drivers_Library/boards/MicroBit/obj/zfp_lib_Debug/libada_drivers_library.a(mma8653.o)
 .comment       0x000000000000003d       0x3e /home/nico/Downloads/Real-Time-Systems/Ada_Drivers_Library/boards/MicroBit/obj/zfp_lib_Debug/libada_drivers_library.a(nrf51-adc.o)
 .comment       0x000000000000003d       0x3e /home/nico/Downloads/Real-Time-Systems/Ada_Drivers_Library/boards/MicroBit/obj/zfp_lib_Debug/libada_drivers_library.a(nrf51-clock.o)
 .comment       0x000000000000003d       0x3e /home/nico/Downloads/Real-Time-Systems/Ada_Drivers_Library/boards/MicroBit/obj/zfp_lib_Debug/libada_drivers_library.a(nrf51-device.o)
 .comment       0x000000000000003d       0x3e /home/nico/Downloads/Real-Time-Systems/Ada_Drivers_Library/boards/MicroBit/obj/zfp_lib_Debug/libada_drivers_library.a(nrf51-events.o)
 .comment       0x000000000000003d       0x3e /home/nico/Downloads/Real-Time-Systems/Ada_Drivers_Library/boards/MicroBit/obj/zfp_lib_Debug/libada_drivers_library.a(nrf51-gpio-tasks_and_events.o)
 .comment       0x000000000000003d       0x3e /home/nico/Downloads/Real-Time-Systems/Ada_Drivers_Library/boards/MicroBit/obj/zfp_lib_Debug/libada_drivers_library.a(nrf51-gpio.o)
 .comment       0x000000000000003d       0x3e /home/nico/Downloads/Real-Time-Systems/Ada_Drivers_Library/boards/MicroBit/obj/zfp_lib_Debug/libada_drivers_library.a(nrf51-interrupts.o)
 .comment       0x000000000000003d       0x3e /home/nico/Downloads/Real-Time-Systems/Ada_Drivers_Library/boards/MicroBit/obj/zfp_lib_Debug/libada_drivers_library.a(nrf51-ppi.o)
 .comment       0x000000000000003d       0x3e /home/nico/Downloads/Real-Time-Systems/Ada_Drivers_Library/boards/MicroBit/obj/zfp_lib_Debug/libada_drivers_library.a(nrf51-rtc.o)
 .comment       0x000000000000003d       0x3e /home/nico/Downloads/Real-Time-Systems/Ada_Drivers_Library/boards/MicroBit/obj/zfp_lib_Debug/libada_drivers_library.a(nrf51-spi_master.o)
 .comment       0x000000000000003d       0x3e /home/nico/Downloads/Real-Time-Systems/Ada_Drivers_Library/boards/MicroBit/obj/zfp_lib_Debug/libada_drivers_library.a(nrf51-tasks.o)
 .comment       0x000000000000003d       0x3e /home/nico/Downloads/Real-Time-Systems/Ada_Drivers_Library/boards/MicroBit/obj/zfp_lib_Debug/libada_drivers_library.a(nrf51-timers.o)
 .comment       0x000000000000003d       0x3e /home/nico/Downloads/Real-Time-Systems/Ada_Drivers_Library/boards/MicroBit/obj/zfp_lib_Debug/libada_drivers_library.a(nrf51-twi.o)
 .comment       0x000000000000003d       0x3e /home/nico/Downloads/Real-Time-Systems/Ada_Drivers_Library/boards/MicroBit/obj/zfp_lib_Debug/libada_drivers_library.a(nrf51-uart.o)
 .comment       0x000000000000003d       0x3e /home/nico/Downloads/Real-Time-Systems/Ada_Drivers_Library/boards/MicroBit/obj/zfp_lib_Debug/libada_drivers_library.a(nrf51_svd-gpio.o)
 .comment       0x000000000000003d       0x3e /home/nico/Downloads/Real-Time-Systems/Ada_Drivers_Library/boards/MicroBit/obj/zfp_lib_Debug/libada_drivers_library.a(nrf51_svd-twi.o)
 .comment       0x000000000000003d       0x3e /home/nico/Downloads/Real-Time-Systems/Ada_Drivers_Library/boards/MicroBit/obj/zfp_lib_Debug/libada_drivers_library.a(hal-gpio.o)
 .comment       0x000000000000003d       0x3e /home/nico/Downloads/Real-Time-Systems/Ada_Drivers_Library/boards/MicroBit/obj/zfp_lib_Debug/libada_drivers_library.a(hal-i2c.o)
 .comment       0x000000000000003d       0x3e /home/nico/Downloads/Real-Time-Systems/Ada_Drivers_Library/boards/MicroBit/obj/zfp_lib_Debug/libada_drivers_library.a(hal-spi.o)
 .comment       0x000000000000003d       0x3e /home/nico/Downloads/Real-Time-Systems/Ada_Drivers_Library/boards/MicroBit/obj/zfp_lib_Debug/libada_drivers_library.a(hal-time.o)
 .comment       0x000000000000003d       0x3e /home/nico/Downloads/Real-Time-Systems/Ada_Drivers_Library/boards/MicroBit/obj/zfp_lib_Debug/libada_drivers_library.a(hal-uart.o)
 .comment       0x000000000000003d       0x3e /home/nico/opt/GNAT/2019-arm-elf/arm-eabi/lib/gnat/zfp-cortex-m0/adalib/libgnat.a(a-elchha.o)
 .comment       0x000000000000003d       0x3e /home/nico/opt/GNAT/2019-arm-elf/arm-eabi/lib/gnat/zfp-cortex-m0/adalib/libgnat.a(a-except.o)
 .comment       0x000000000000003d       0x3e /home/nico/opt/GNAT/2019-arm-elf/arm-eabi/lib/gnat/zfp-cortex-m0/adalib/libgnat.a(g-io.o)
 .comment       0x000000000000003d       0x3e /home/nico/opt/GNAT/2019-arm-elf/arm-eabi/lib/gnat/zfp-cortex-m0/adalib/libgnat.a(s-assert.o)
 .comment       0x000000000000003d       0x3e /home/nico/opt/GNAT/2019-arm-elf/arm-eabi/lib/gnat/zfp-cortex-m0/adalib/libgnat.a(s-imgint.o)
 .comment       0x000000000000003d       0x3e /home/nico/opt/GNAT/2019-arm-elf/arm-eabi/lib/gnat/zfp-cortex-m0/adalib/libgnat.a(s-macres.o)
 .comment       0x000000000000003d       0x3e /home/nico/opt/GNAT/2019-arm-elf/arm-eabi/lib/gnat/zfp-cortex-m0/adalib/libgnat.a(s-memcom.o)
 .comment       0x000000000000003d       0x3e /home/nico/opt/GNAT/2019-arm-elf/arm-eabi/lib/gnat/zfp-cortex-m0/adalib/libgnat.a(s-memcop.o)
 .comment       0x000000000000003d       0x3e /home/nico/opt/GNAT/2019-arm-elf/arm-eabi/lib/gnat/zfp-cortex-m0/adalib/libgnat.a(s-memset.o)
 .comment       0x000000000000003d       0x3e /home/nico/opt/GNAT/2019-arm-elf/arm-eabi/lib/gnat/zfp-cortex-m0/adalib/libgnat.a(s-secsta.o)
 .comment       0x000000000000003d       0x3e /home/nico/opt/GNAT/2019-arm-elf/arm-eabi/lib/gnat/zfp-cortex-m0/adalib/libgnat.a(s-textio.o)
 .comment       0x000000000000003d       0x3e /home/nico/opt/GNAT/2019-arm-elf/arm-eabi/lib/gnat/zfp-cortex-m0/adalib/libgnat.a(s-semiho.o)
 .comment       0x000000000000003d       0x3e /home/nico/opt/GNAT/2019-arm-elf/bin/../lib/gcc/arm-eabi/7.4.1/thumb/v6-m/libgcc.a(_fixunssfsi.o)
 .comment       0x000000000000003d       0x3e /home/nico/opt/GNAT/2019-arm-elf/bin/../lib/gcc/arm-eabi/7.4.1/thumb/v6-m/libgcc.a(addsf3.o)
 .comment       0x000000000000003d       0x3e /home/nico/opt/GNAT/2019-arm-elf/bin/../lib/gcc/arm-eabi/7.4.1/thumb/v6-m/libgcc.a(divsf3.o)
 .comment       0x000000000000003d       0x3e /home/nico/opt/GNAT/2019-arm-elf/bin/../lib/gcc/arm-eabi/7.4.1/thumb/v6-m/libgcc.a(eqsf2.o)
 .comment       0x000000000000003d       0x3e /home/nico/opt/GNAT/2019-arm-elf/bin/../lib/gcc/arm-eabi/7.4.1/thumb/v6-m/libgcc.a(gesf2.o)
 .comment       0x000000000000003d       0x3e /home/nico/opt/GNAT/2019-arm-elf/bin/../lib/gcc/arm-eabi/7.4.1/thumb/v6-m/libgcc.a(lesf2.o)
 .comment       0x000000000000003d       0x3e /home/nico/opt/GNAT/2019-arm-elf/bin/../lib/gcc/arm-eabi/7.4.1/thumb/v6-m/libgcc.a(mulsf3.o)
 .comment       0x000000000000003d       0x3e /home/nico/opt/GNAT/2019-arm-elf/bin/../lib/gcc/arm-eabi/7.4.1/thumb/v6-m/libgcc.a(subsf3.o)
 .comment       0x000000000000003d       0x3e /home/nico/opt/GNAT/2019-arm-elf/bin/../lib/gcc/arm-eabi/7.4.1/thumb/v6-m/libgcc.a(unordsf2.o)
 .comment       0x000000000000003d       0x3e /home/nico/opt/GNAT/2019-arm-elf/bin/../lib/gcc/arm-eabi/7.4.1/thumb/v6-m/libgcc.a(fixsfsi.o)
 .comment       0x000000000000003d       0x3e /home/nico/opt/GNAT/2019-arm-elf/bin/../lib/gcc/arm-eabi/7.4.1/thumb/v6-m/libgcc.a(floatsisf.o)
 .comment       0x000000000000003d       0x3e /home/nico/opt/GNAT/2019-arm-elf/bin/../lib/gcc/arm-eabi/7.4.1/thumb/v6-m/libgcc.a(floatunsisf.o)

.ARM.attributes
                0x0000000000000000       0x2f
 .ARM.attributes
                0x0000000000000000       0x2f main.o
 .ARM.attributes
                0x000000000000002f       0x2f b__main.o
 .ARM.attributes
                0x000000000000005e       0x2f /home/nico/Downloads/Real-Time-Systems/driving/obj/chore.o
 .ARM.attributes
                0x000000000000008d       0x2f /home/nico/Downloads/Real-Time-Systems/driving/obj/accelerometer.o
 .ARM.attributes
                0x00000000000000bc       0x2f /home/nico/Downloads/Real-Time-Systems/driving/obj/nav.o
 .ARM.attributes
                0x00000000000000eb       0x2f /home/nico/Downloads/Real-Time-Systems/driving/obj/qjs.o
 .ARM.attributes
                0x000000000000011a       0x2f /home/nico/Downloads/Real-Time-Systems/driving/obj/sensor.o
 .ARM.attributes
                0x0000000000000149       0x2f /home/nico/Downloads/Real-Time-Systems/Ada_Drivers_Library/boards/MicroBit/obj/zfp_lib_Debug/libada_drivers_library.a(cortex_m-nvic.o)
 .ARM.attributes
                0x0000000000000178       0x21 /home/nico/Downloads/Real-Time-Systems/Ada_Drivers_Library/boards/MicroBit/obj/zfp_lib_Debug/libada_drivers_library.a(crt0.o)
 .ARM.attributes
                0x0000000000000199       0x2f /home/nico/Downloads/Real-Time-Systems/Ada_Drivers_Library/boards/MicroBit/obj/zfp_lib_Debug/libada_drivers_library.a(microbit-accelerometer.o)
 .ARM.attributes
                0x00000000000001c8       0x2f /home/nico/Downloads/Real-Time-Systems/Ada_Drivers_Library/boards/MicroBit/obj/zfp_lib_Debug/libada_drivers_library.a(microbit-console.o)
 .ARM.attributes
                0x00000000000001f7       0x2f /home/nico/Downloads/Real-Time-Systems/Ada_Drivers_Library/boards/MicroBit/obj/zfp_lib_Debug/libada_drivers_library.a(microbit-display.o)
 .ARM.attributes
                0x0000000000000226       0x2f /home/nico/Downloads/Real-Time-Systems/Ada_Drivers_Library/boards/MicroBit/obj/zfp_lib_Debug/libada_drivers_library.a(microbit-i2c.o)
 .ARM.attributes
                0x0000000000000255       0x2f /home/nico/Downloads/Real-Time-Systems/Ada_Drivers_Library/boards/MicroBit/obj/zfp_lib_Debug/libada_drivers_library.a(microbit-ios.o)
 .ARM.attributes
                0x0000000000000284       0x2f /home/nico/Downloads/Real-Time-Systems/Ada_Drivers_Library/boards/MicroBit/obj/zfp_lib_Debug/libada_drivers_library.a(microbit-servos.o)
 .ARM.attributes
                0x00000000000002b3       0x2f /home/nico/Downloads/Real-Time-Systems/Ada_Drivers_Library/boards/MicroBit/obj/zfp_lib_Debug/libada_drivers_library.a(microbit-time.o)
 .ARM.attributes
                0x00000000000002e2       0x2f /home/nico/Downloads/Real-Time-Systems/Ada_Drivers_Library/boards/MicroBit/obj/zfp_lib_Debug/libada_drivers_library.a(mma8653.o)
 .ARM.attributes
                0x0000000000000311       0x2f /home/nico/Downloads/Real-Time-Systems/Ada_Drivers_Library/boards/MicroBit/obj/zfp_lib_Debug/libada_drivers_library.a(nrf51-adc.o)
 .ARM.attributes
                0x0000000000000340       0x2f /home/nico/Downloads/Real-Time-Systems/Ada_Drivers_Library/boards/MicroBit/obj/zfp_lib_Debug/libada_drivers_library.a(nrf51-clock.o)
 .ARM.attributes
                0x000000000000036f       0x2f /home/nico/Downloads/Real-Time-Systems/Ada_Drivers_Library/boards/MicroBit/obj/zfp_lib_Debug/libada_drivers_library.a(nrf51-device.o)
 .ARM.attributes
                0x000000000000039e       0x2f /home/nico/Downloads/Real-Time-Systems/Ada_Drivers_Library/boards/MicroBit/obj/zfp_lib_Debug/libada_drivers_library.a(nrf51-events.o)
 .ARM.attributes
                0x00000000000003cd       0x2f /home/nico/Downloads/Real-Time-Systems/Ada_Drivers_Library/boards/MicroBit/obj/zfp_lib_Debug/libada_drivers_library.a(nrf51-gpio-tasks_and_events.o)
 .ARM.attributes
                0x00000000000003fc       0x2f /home/nico/Downloads/Real-Time-Systems/Ada_Drivers_Library/boards/MicroBit/obj/zfp_lib_Debug/libada_drivers_library.a(nrf51-gpio.o)
 .ARM.attributes
                0x000000000000042b       0x2f /home/nico/Downloads/Real-Time-Systems/Ada_Drivers_Library/boards/MicroBit/obj/zfp_lib_Debug/libada_drivers_library.a(nrf51-interrupts.o)
 .ARM.attributes
                0x000000000000045a       0x2f /home/nico/Downloads/Real-Time-Systems/Ada_Drivers_Library/boards/MicroBit/obj/zfp_lib_Debug/libada_drivers_library.a(nrf51-ppi.o)
 .ARM.attributes
                0x0000000000000489       0x2f /home/nico/Downloads/Real-Time-Systems/Ada_Drivers_Library/boards/MicroBit/obj/zfp_lib_Debug/libada_drivers_library.a(nrf51-rtc.o)
 .ARM.attributes
                0x00000000000004b8       0x2f /home/nico/Downloads/Real-Time-Systems/Ada_Drivers_Library/boards/MicroBit/obj/zfp_lib_Debug/libada_drivers_library.a(nrf51-spi_master.o)
 .ARM.attributes
                0x00000000000004e7       0x2f /home/nico/Downloads/Real-Time-Systems/Ada_Drivers_Library/boards/MicroBit/obj/zfp_lib_Debug/libada_drivers_library.a(nrf51-tasks.o)
 .ARM.attributes
                0x0000000000000516       0x2f /home/nico/Downloads/Real-Time-Systems/Ada_Drivers_Library/boards/MicroBit/obj/zfp_lib_Debug/libada_drivers_library.a(nrf51-timers.o)
 .ARM.attributes
                0x0000000000000545       0x2f /home/nico/Downloads/Real-Time-Systems/Ada_Drivers_Library/boards/MicroBit/obj/zfp_lib_Debug/libada_drivers_library.a(nrf51-twi.o)
 .ARM.attributes
                0x0000000000000574       0x2f /home/nico/Downloads/Real-Time-Systems/Ada_Drivers_Library/boards/MicroBit/obj/zfp_lib_Debug/libada_drivers_library.a(nrf51-uart.o)
 .ARM.attributes
                0x00000000000005a3       0x2f /home/nico/Downloads/Real-Time-Systems/Ada_Drivers_Library/boards/MicroBit/obj/zfp_lib_Debug/libada_drivers_library.a(nrf51_svd-gpio.o)
 .ARM.attributes
                0x00000000000005d2       0x2f /home/nico/Downloads/Real-Time-Systems/Ada_Drivers_Library/boards/MicroBit/obj/zfp_lib_Debug/libada_drivers_library.a(nrf51_svd-twi.o)
 .ARM.attributes
                0x0000000000000601       0x2f /home/nico/Downloads/Real-Time-Systems/Ada_Drivers_Library/boards/MicroBit/obj/zfp_lib_Debug/libada_drivers_library.a(hal-gpio.o)
 .ARM.attributes
                0x0000000000000630       0x2f /home/nico/Downloads/Real-Time-Systems/Ada_Drivers_Library/boards/MicroBit/obj/zfp_lib_Debug/libada_drivers_library.a(hal-i2c.o)
 .ARM.attributes
                0x000000000000065f       0x2f /home/nico/Downloads/Real-Time-Systems/Ada_Drivers_Library/boards/MicroBit/obj/zfp_lib_Debug/libada_drivers_library.a(hal-spi.o)
 .ARM.attributes
                0x000000000000068e       0x2f /home/nico/Downloads/Real-Time-Systems/Ada_Drivers_Library/boards/MicroBit/obj/zfp_lib_Debug/libada_drivers_library.a(hal-time.o)
 .ARM.attributes
                0x00000000000006bd       0x2f /home/nico/Downloads/Real-Time-Systems/Ada_Drivers_Library/boards/MicroBit/obj/zfp_lib_Debug/libada_drivers_library.a(hal-uart.o)
 .ARM.attributes
                0x00000000000006ec       0x2f /home/nico/opt/GNAT/2019-arm-elf/arm-eabi/lib/gnat/zfp-cortex-m0/adalib/libgnat.a(a-elchha.o)
 .ARM.attributes
                0x000000000000071b       0x2f /home/nico/opt/GNAT/2019-arm-elf/arm-eabi/lib/gnat/zfp-cortex-m0/adalib/libgnat.a(a-except.o)
 .ARM.attributes
                0x000000000000074a       0x21 /home/nico/opt/GNAT/2019-arm-elf/arm-eabi/lib/gnat/zfp-cortex-m0/adalib/libgnat.a(breakpoint_handler-cortexm.o)
 .ARM.attributes
                0x000000000000076b       0x2f /home/nico/opt/GNAT/2019-arm-elf/arm-eabi/lib/gnat/zfp-cortex-m0/adalib/libgnat.a(g-io.o)
 .ARM.attributes
                0x000000000000079a       0x2f /home/nico/opt/GNAT/2019-arm-elf/arm-eabi/lib/gnat/zfp-cortex-m0/adalib/libgnat.a(s-assert.o)
 .ARM.attributes
                0x00000000000007c9       0x2f /home/nico/opt/GNAT/2019-arm-elf/arm-eabi/lib/gnat/zfp-cortex-m0/adalib/libgnat.a(s-imgint.o)
 .ARM.attributes
                0x00000000000007f8       0x2f /home/nico/opt/GNAT/2019-arm-elf/arm-eabi/lib/gnat/zfp-cortex-m0/adalib/libgnat.a(s-macres.o)
 .ARM.attributes
                0x0000000000000827       0x2f /home/nico/opt/GNAT/2019-arm-elf/arm-eabi/lib/gnat/zfp-cortex-m0/adalib/libgnat.a(s-memcom.o)
 .ARM.attributes
                0x0000000000000856       0x2f /home/nico/opt/GNAT/2019-arm-elf/arm-eabi/lib/gnat/zfp-cortex-m0/adalib/libgnat.a(s-memcop.o)
 .ARM.attributes
                0x0000000000000885       0x2f /home/nico/opt/GNAT/2019-arm-elf/arm-eabi/lib/gnat/zfp-cortex-m0/adalib/libgnat.a(s-memset.o)
 .ARM.attributes
                0x00000000000008b4       0x2f /home/nico/opt/GNAT/2019-arm-elf/arm-eabi/lib/gnat/zfp-cortex-m0/adalib/libgnat.a(s-secsta.o)
 .ARM.attributes
                0x00000000000008e3       0x2f /home/nico/opt/GNAT/2019-arm-elf/arm-eabi/lib/gnat/zfp-cortex-m0/adalib/libgnat.a(s-textio.o)
 .ARM.attributes
                0x0000000000000912       0x2f /home/nico/opt/GNAT/2019-arm-elf/arm-eabi/lib/gnat/zfp-cortex-m0/adalib/libgnat.a(s-semiho.o)
 .ARM.attributes
                0x0000000000000941       0x1e /home/nico/opt/GNAT/2019-arm-elf/bin/../lib/gcc/arm-eabi/7.4.1/thumb/v6-m/libgcc.a(_divsi3.o)
 .ARM.attributes
                0x000000000000095f       0x1e /home/nico/opt/GNAT/2019-arm-elf/bin/../lib/gcc/arm-eabi/7.4.1/thumb/v6-m/libgcc.a(_dvmd_tls.o)
 .ARM.attributes
                0x000000000000097d       0x1e /home/nico/opt/GNAT/2019-arm-elf/bin/../lib/gcc/arm-eabi/7.4.1/thumb/v6-m/libgcc.a(_arm_cmpsf2.o)
 .ARM.attributes
                0x000000000000099b       0x2c /home/nico/opt/GNAT/2019-arm-elf/bin/../lib/gcc/arm-eabi/7.4.1/thumb/v6-m/libgcc.a(_fixunssfsi.o)
 .ARM.attributes
                0x00000000000009c7       0x2c /home/nico/opt/GNAT/2019-arm-elf/bin/../lib/gcc/arm-eabi/7.4.1/thumb/v6-m/libgcc.a(addsf3.o)
 .ARM.attributes
                0x00000000000009f3       0x2c /home/nico/opt/GNAT/2019-arm-elf/bin/../lib/gcc/arm-eabi/7.4.1/thumb/v6-m/libgcc.a(divsf3.o)
 .ARM.attributes
                0x0000000000000a1f       0x2c /home/nico/opt/GNAT/2019-arm-elf/bin/../lib/gcc/arm-eabi/7.4.1/thumb/v6-m/libgcc.a(eqsf2.o)
 .ARM.attributes
                0x0000000000000a4b       0x2c /home/nico/opt/GNAT/2019-arm-elf/bin/../lib/gcc/arm-eabi/7.4.1/thumb/v6-m/libgcc.a(gesf2.o)
 .ARM.attributes
                0x0000000000000a77       0x2c /home/nico/opt/GNAT/2019-arm-elf/bin/../lib/gcc/arm-eabi/7.4.1/thumb/v6-m/libgcc.a(lesf2.o)
 .ARM.attributes
                0x0000000000000aa3       0x2c /home/nico/opt/GNAT/2019-arm-elf/bin/../lib/gcc/arm-eabi/7.4.1/thumb/v6-m/libgcc.a(mulsf3.o)
 .ARM.attributes
                0x0000000000000acf       0x2c /home/nico/opt/GNAT/2019-arm-elf/bin/../lib/gcc/arm-eabi/7.4.1/thumb/v6-m/libgcc.a(subsf3.o)
 .ARM.attributes
                0x0000000000000afb       0x2c /home/nico/opt/GNAT/2019-arm-elf/bin/../lib/gcc/arm-eabi/7.4.1/thumb/v6-m/libgcc.a(unordsf2.o)
 .ARM.attributes
                0x0000000000000b27       0x2c /home/nico/opt/GNAT/2019-arm-elf/bin/../lib/gcc/arm-eabi/7.4.1/thumb/v6-m/libgcc.a(fixsfsi.o)
 .ARM.attributes
                0x0000000000000b53       0x2c /home/nico/opt/GNAT/2019-arm-elf/bin/../lib/gcc/arm-eabi/7.4.1/thumb/v6-m/libgcc.a(floatsisf.o)
 .ARM.attributes
                0x0000000000000b7f       0x2c /home/nico/opt/GNAT/2019-arm-elf/bin/../lib/gcc/arm-eabi/7.4.1/thumb/v6-m/libgcc.a(floatunsisf.o)
 .ARM.attributes
                0x0000000000000bab       0x1e /home/nico/opt/GNAT/2019-arm-elf/bin/../lib/gcc/arm-eabi/7.4.1/thumb/v6-m/libgcc.a(_clzsi2.o)

.gnu.attributes
 *(.gnu.attributes)

/DISCARD/
 *(.note.GNU-stack)
 *(.gnu_debuglink)
 *(.gnu.lto_*)
OUTPUT(main elf32-littlearm)
